

Microchip MPLAB XC8 Assembler V2.10 build 88905656 
                                                                                               Thu Apr 22 10:02:04 2021

Microchip MPLAB XC8 C Compiler v2.10 (Free license) build 20190730164152 Og1 
     1                           	processor	18F25K80
     2                           	fnconf	rparam,??,?,0
     3                           	opt	pw 120
     4                           	opt	flic
     5                           	psect	nvCOMRAM,global,class=COMRAM,space=1,delta=1,noexec
     6                           	psect	cinit,global,reloc=2,class=CODE,delta=1
     7                           	psect	bssCOMRAM,global,class=COMRAM,space=1,delta=1,noexec
     8                           	psect	cstackCOMRAM,global,class=COMRAM,space=1,delta=1,noexec
     9                           	psect	text0,global,reloc=2,class=CODE,delta=1
    10                           	psect	text1,global,reloc=2,class=CODE,delta=1
    11                           	psect	text2,global,reloc=2,class=CODE,delta=1
    12                           	psect	text3,global,reloc=2,class=CODE,delta=1
    13                           	psect	text4,global,reloc=2,class=CODE,delta=1
    14                           	psect	text5,global,reloc=2,class=CODE,delta=1
    15                           	psect	text6,global,reloc=2,class=CODE,delta=1
    16                           	psect	text7,global,reloc=2,class=CODE,delta=1
    17                           	psect	text8,global,reloc=2,class=CODE,delta=1
    18                           	psect	text9,global,reloc=2,class=CODE,delta=1
    19                           	psect	text10,global,reloc=2,class=CODE,delta=1
    20                           	psect	text11,global,reloc=2,class=CODE,delta=1
    21                           	psect	text12,global,reloc=2,class=CODE,delta=1
    22                           	psect	text13,global,reloc=2,class=CODE,delta=1
    23                           	psect	text14,global,reloc=2,class=CODE,delta=1
    24                           	psect	text15,global,reloc=2,class=CODE,delta=1
    25                           	psect	text16,global,reloc=2,class=CODE,delta=1
    26                           	psect	text17,global,reloc=2,class=CODE,delta=1
    27                           	psect	text18,global,reloc=2,class=CODE,delta=1
    28                           	psect	text19,global,reloc=2,class=CODE,delta=1
    29                           	psect	text20,global,reloc=2,class=CODE,delta=1
    30                           	psect	text21,global,reloc=2,class=CODE,delta=1
    31                           	psect	text22,global,reloc=2,class=CODE,delta=1
    32                           	psect	text23,global,reloc=2,class=CODE,delta=1
    33                           	psect	text24,global,reloc=2,class=CODE,delta=1
    34                           	psect	text25,global,reloc=2,class=CODE,delta=1
    35                           	psect	intcodelo,global,reloc=2,class=CODE,delta=1
    36                           	psect	text27,global,reloc=2,class=CODE,delta=1
    37                           	psect	text28,global,reloc=2,class=CODE,delta=1
    38                           	psect	text29,global,reloc=2,class=CODE,delta=1
    39                           	psect	text30,global,reloc=2,class=CODE,delta=1
    40                           	psect	text31,global,reloc=2,class=CODE,delta=1
    41                           	psect	text32,global,reloc=2,class=CODE,delta=1
    42                           	psect	text33,global,reloc=2,class=CODE,delta=1
    43                           	psect	text34,global,reloc=2,class=CODE,delta=1
    44                           	psect	text35,global,reloc=2,class=CODE,delta=1
    45                           	psect	text36,global,reloc=2,class=CODE,delta=1
    46                           	psect	text37,global,reloc=2,class=CODE,delta=1
    47                           	psect	text38,global,reloc=2,class=CODE,delta=1
    48                           	psect	text39,global,reloc=2,class=CODE,delta=1
    49                           	psect	text40,global,reloc=2,class=CODE,delta=1
    50                           	psect	text41,global,reloc=2,class=CODE,delta=1
    51                           	psect	text42,global,reloc=2,class=CODE,delta=1
    52                           	psect	text43,global,reloc=2,class=CODE,delta=1
    53                           	psect	text44,global,reloc=2,class=CODE,delta=1
    54                           	psect	text45,global,reloc=2,class=CODE,delta=1
    55                           	psect	text46,global,reloc=2,class=CODE,delta=1
    56                           	psect	text47,global,reloc=2,class=CODE,delta=1
    57                           	psect	text48,global,reloc=2,class=CODE,delta=1
    58                           	psect	intcode,global,reloc=2,class=CODE,delta=1
    59                           	psect	intcode_body,global,reloc=2,class=CODE,delta=1
    60                           	psect	text50,global,reloc=2,class=CODE,delta=1
    61                           	psect	text51,global,reloc=2,class=CODE,delta=1
    62                           	psect	text52,global,reloc=2,class=CODE,delta=1
    63                           	psect	text53,global,reloc=2,class=CODE,delta=1
    64                           	psect	text54,global,reloc=2,class=CODE,delta=1
    65                           	psect	text55,global,reloc=2,class=CODE,delta=1
    66                           	psect	intsave_regs,global,class=BIGRAM,space=1,delta=1,noexec
    67                           	psect	text56,global,reloc=2,class=CODE,delta=1
    68                           	psect	rparam,global,class=COMRAM,space=1,delta=1,noexec
    69                           	psect	temp,global,ovrld,common,class=COMRAM,space=1,delta=1
    70  0000                     
    71                           ; Version 2.10
    72                           ; Generated 31/07/2019 GMT
    73                           ; 
    74                           ; Copyright © 2019, Microchip Technology Inc. and its subsidiaries ("Microchip")
    75                           ; All rights reserved.
    76                           ; 
    77                           ; This software is developed by Microchip Technology Inc. and its subsidiaries ("Microch
      +                          ip").
    78                           ; 
    79                           ; Redistribution and use in source and binary forms, with or without modification, are
    80                           ; permitted provided that the following conditions are met:
    81                           ; 
    82                           ;     1. Redistributions of source code must retain the above copyright notice, this lis
      +                          t of
    83                           ;        conditions and the following disclaimer.
    84                           ; 
    85                           ;     2. Redistributions in binary form must reproduce the above copyright notice, this 
      +                          list
    86                           ;        of conditions and the following disclaimer in the documentation and/or other
    87                           ;        materials provided with the distribution.
    88                           ; 
    89                           ;     3. Microchip's name may not be used to endorse or promote products derived from th
      +                          is
    90                           ;        software without specific prior written permission.
    91                           ; 
    92                           ; THIS SOFTWARE IS PROVIDED BY MICROCHIP "AS IS" AND ANY EXPRESS OR IMPLIED WARRANTIES,
    93                           ; INCLUDING, BUT NOT LIMITED TO, THE IMPLIED WARRANTIES OF MERCHANTABILITY AND FITNESS F
      +                          OR
    94                           ; PURPOSE ARE DISCLAIMED.  IN NO EVENT SHALL MICROCHIP BE LIABLE FOR ANY DIRECT, INDIREC
      +                          T,
    95                           ; INCIDENTAL, SPECIAL, EXEMPLARY, OR CONSEQUENTIAL DAMAGES (INCLUDING BUT NOT LIMITED TO
    96                           ; PROCUREMENT OF SUBSTITUTE GOODS OR SERVICES; LOSS OF USE, DATA OR PROFITS; OR BUSINESS
    97                           ; INTERRUPTION) HOWSOEVER CAUSED AND ON ANY THEORY OF LIABILITY, WHETHER IN CONTRACT, ST
      +                          RICT
    98                           ; LIABILITY, OR TORT (INCLUDING NEGLIGENCE OR OTHERWISE) ARISING IN ANY WAY OUT OF THE U
      +                          SE OF
    99                           ; THIS SOFTWARE, EVEN IF ADVISED OF THE POSSIBILITY OF SUCH DAMAGE.
   100                           ; 
   101                           ; 
   102                           ; Code-generator required, PIC18F25K80 Definitions
   103                           ; 
   104                           ; SFR Addresses
   105  0000                     
   106                           	psect	nvCOMRAM
   107  00003B                     __pnvCOMRAM:
   108                           	opt callstack 0
   109  00003B                     _EUSART1_ErrorHandler:
   110                           	opt callstack 0
   111  00003B                     	ds	2
   112  00003D                     _EUSART1_OverrunErrorHandler:
   113                           	opt callstack 0
   114  00003D                     	ds	2
   115  00003F                     _EUSART1_FramingErrorHandler:
   116                           	opt callstack 0
   117  00003F                     	ds	2
   118  000041                     _EUSART1_RxDefaultInterruptHandler:
   119                           	opt callstack 0
   120  000041                     	ds	2
   121  000043                     _EUSART1_TxDefaultInterruptHandler:
   122                           	opt callstack 0
   123  000043                     	ds	2
   124  000045                     _eusart1TxBufferRemaining:
   125                           	opt callstack 0
   126  000045                     	ds	1
   127  0000                     _BRGCON3	set	3653
   128  0000                     _BRGCON2	set	3652
   129  0000                     _BRGCON1	set	3651
   130  0000                     _RXF5SIDL	set	3829
   131  0000                     _RXF5SIDH	set	3828
   132  0000                     _RXF5EIDL	set	3831
   133  0000                     _RXF5EIDH	set	3830
   134  0000                     _RXF4SIDL	set	3825
   135  0000                     _RXF4SIDH	set	3824
   136  0000                     _RXF4EIDL	set	3827
   137  0000                     _RXF4EIDH	set	3826
   138  0000                     _RXF3SIDL	set	3821
   139  0000                     _RXF3SIDH	set	3820
   140  0000                     _RXF3EIDL	set	3823
   141  0000                     _RXF3EIDH	set	3822
   142  0000                     _RXF2SIDL	set	3817
   143  0000                     _RXF2SIDH	set	3816
   144  0000                     _RXF2EIDL	set	3819
   145  0000                     _RXF2EIDH	set	3818
   146  0000                     _RXF1SIDL	set	3813
   147  0000                     _RXF1SIDH	set	3812
   148  0000                     _RXF1EIDL	set	3815
   149  0000                     _RXF1EIDH	set	3814
   150  0000                     _RXF0SIDL	set	3809
   151  0000                     _RXF0SIDH	set	3808
   152  0000                     _RXF0EIDL	set	3811
   153  0000                     _RXF0EIDH	set	3810
   154  0000                     _RXM1SIDL	set	3837
   155  0000                     _RXM1SIDH	set	3836
   156  0000                     _RXM1EIDL	set	3839
   157  0000                     _RXM1EIDH	set	3838
   158  0000                     _RXM0SIDL	set	3833
   159  0000                     _RXM0SIDH	set	3832
   160  0000                     _RXM0EIDL	set	3835
   161  0000                     _RXM0EIDH	set	3834
   162  0000                     _WPUB	set	3931
   163  0000                     _ANCON1	set	3932
   164  0000                     _ANCON0	set	3933
   165  0000                     _RXB1D7	set	3901
   166  0000                     _RXB1D6	set	3900
   167  0000                     _RXB1D5	set	3899
   168  0000                     _RXB1D4	set	3898
   169  0000                     _RXB1D3	set	3897
   170  0000                     _RXB1D2	set	3896
   171  0000                     _RXB1D1	set	3895
   172  0000                     _RXB1D0	set	3894
   173  0000                     _RXB1DLC	set	3893
   174  0000                     _RXB1SIDH	set	3889
   175  0000                     _RXB1EIDL	set	3892
   176  0000                     _RXB1EIDH	set	3891
   177  0000                     _RXB1SIDL	set	3890
   178  0000                     _RXB1CONbits	set	3888
   179  0000                     _TXB2D7	set	3853
   180  0000                     _TXB2D6	set	3852
   181  0000                     _TXB2D5	set	3851
   182  0000                     _TXB2D4	set	3850
   183  0000                     _TXB2D3	set	3849
   184  0000                     _TXB2D2	set	3848
   185  0000                     _TXB2D1	set	3847
   186  0000                     _TXB2D0	set	3846
   187  0000                     _TXB2DLC	set	3845
   188  0000                     _TXB2SIDL	set	3842
   189  0000                     _TXB2SIDH	set	3841
   190  0000                     _TXB2EIDL	set	3844
   191  0000                     _TXB2EIDH	set	3843
   192  0000                     _TXB2CONbits	set	3840
   193  0000                     _TXB1D7	set	3869
   194  0000                     _TXB1D6	set	3868
   195  0000                     _TXB1D5	set	3867
   196  0000                     _TXB1D4	set	3866
   197  0000                     _TXB1D3	set	3865
   198  0000                     _TXB1D2	set	3864
   199  0000                     _TXB1D1	set	3863
   200  0000                     _TXB1D0	set	3862
   201  0000                     _TXB1DLC	set	3861
   202  0000                     _TXB1SIDL	set	3858
   203  0000                     _TXB1SIDH	set	3857
   204  0000                     _TXB1EIDL	set	3860
   205  0000                     _TXB1EIDH	set	3859
   206  0000                     _TXB1CONbits	set	3856
   207  0000                     _TXB0D7	set	3885
   208  0000                     _TXB0D6	set	3884
   209  0000                     _TXB0D5	set	3883
   210  0000                     _TXB0D4	set	3882
   211  0000                     _TXB0D3	set	3881
   212  0000                     _TXB0D2	set	3880
   213  0000                     _TXB0D1	set	3879
   214  0000                     _TXB0D0	set	3878
   215  0000                     _TXB0DLC	set	3877
   216  0000                     _TXB0SIDL	set	3874
   217  0000                     _TXB0SIDH	set	3873
   218  0000                     _TXB0EIDL	set	3876
   219  0000                     _TXB0EIDH	set	3875
   220  0000                     _TXB0CONbits	set	3872
   221  0000                     _RCREG1	set	4014
   222  0000                     _RCSTA1bits	set	4011
   223  0000                     _TXREG1	set	4013
   224  0000                     _TXSTA1bits	set	4012
   225  0000                     _SPBRGH1	set	3965
   226  0000                     _SPBRG1	set	4015
   227  0000                     _TXSTA1	set	4012
   228  0000                     _RCSTA1	set	4011
   229  0000                     _BAUDCON1	set	4007
   230  0000                     _INTCONbits	set	4082
   231  0000                     _INTCON2bits	set	4081
   232  0000                     _TRISC	set	3988
   233  0000                     _TRISB	set	3987
   234  0000                     _TRISA	set	3986
   235  0000                     _LATC	set	3979
   236  0000                     _LATB	set	3978
   237  0000                     _LATA	set	3977
   238  0000                     _COMSTATbits	set	3953
   239  0000                     _RXB0D7	set	3949
   240  0000                     _RXB0D6	set	3948
   241  0000                     _RXB0D5	set	3947
   242  0000                     _RXB0D4	set	3946
   243  0000                     _RXB0D3	set	3945
   244  0000                     _RXB0D2	set	3944
   245  0000                     _RXB0D1	set	3943
   246  0000                     _RXB0D0	set	3942
   247  0000                     _RXB0DLC	set	3941
   248  0000                     _RXB0SIDH	set	3937
   249  0000                     _RXB0EIDL	set	3940
   250  0000                     _RXB0EIDH	set	3939
   251  0000                     _RXB0SIDL	set	3938
   252  0000                     _RXB0CONbits	set	3936
   253  0000                     _CIOCON	set	3952
   254  0000                     _ECANCON	set	3954
   255  0000                     _CANSTAT	set	3950
   256  0000                     _CANCON	set	3951
   257  0000                     _REFOCON	set	3994
   258  0000                     _OSCTUNE	set	3995
   259  0000                     _OSCCON2	set	4050
   260  0000                     _OSCCON	set	4051
   261  0000                     _PIR5bits	set	3959
   262  0000                     _PIE5bits	set	3958
   263  0000                     _PIR1bits	set	3998
   264  0000                     _PIE1bits	set	3997
   265  0000                     _IPR5bits	set	3960
   266  0000                     _IPR1bits	set	3999
   267  0000                     _RCONbits	set	4048
   268                           
   269                           ; #config settings
   270  0000                     
   271                           	psect	cinit
   272  00073E                     __pcinit:
   273                           	opt callstack 0
   274  00073E                     start_initialization:
   275                           	opt callstack 0
   276  00073E                     __initialization:
   277                           	opt callstack 0
   278                           
   279                           ; Clear objects allocated to COMRAM (58 bytes)
   280  00073E  EE00  F001         	lfsr	0,__pbssCOMRAM
   281  000742  0E3A               	movlw	58
   282  000744                     clear_0:
   283  000744  6AEE               	clrf	postinc0,c
   284  000746  06E8               	decf	wreg,f,c
   285  000748  E1FD               	bnz	clear_0
   286  00074A                     end_of_initialization:
   287                           	opt callstack 0
   288  00074A                     __end_of__initialization:
   289                           	opt callstack 0
   290  00074A  9051               	bcf	int$flags,0,c	;clear compiler interrupt flag (level 1)
   291  00074C  9251               	bcf	int$flags,1,c	;clear compiler interrupt flag (level 2)
   292  00074E  0E00               	movlw	low (__Lmediumconst shr (0+16))
   293  000750  6EF8               	movwf	tblptru,c
   294  000752  0100               	movlb	0
   295  000754  EFCC  F003         	goto	_main	;jump to C main() function
   296                           
   297                           	psect	bssCOMRAM
   298  000001                     __pbssCOMRAM:
   299                           	opt callstack 0
   300  000001                     _eusart1RxStatusBuffer:
   301                           	opt callstack 0
   302  000001                     	ds	8
   303  000009                     _eusart1RxBuffer:
   304                           	opt callstack 0
   305  000009                     	ds	8
   306  000011                     _eusart1TxBuffer:
   307                           	opt callstack 0
   308  000011                     	ds	8
   309  000019                     _MessageErrorInterruptHandler:
   310                           	opt callstack 0
   311  000019                     	ds	2
   312  00001B                     _WakeUpInterruptHandler:
   313                           	opt callstack 0
   314  00001B                     	ds	2
   315  00001D                     _RXWarningHandler:
   316                           	opt callstack 0
   317  00001D                     	ds	2
   318  00001F                     _TXWarningHandler:
   319                           	opt callstack 0
   320  00001F                     	ds	2
   321  000021                     _RXPassiveHandler:
   322                           	opt callstack 0
   323  000021                     	ds	2
   324  000023                     _TXPassiveHandler:
   325                           	opt callstack 0
   326  000023                     	ds	2
   327  000025                     _BusOffHandler:
   328                           	opt callstack 0
   329  000025                     	ds	2
   330  000027                     _RXB1OverflowHandler:
   331                           	opt callstack 0
   332  000027                     	ds	2
   333  000029                     _RXB0OverflowHandler:
   334                           	opt callstack 0
   335  000029                     	ds	2
   336  00002B                     _TXB2InterruptHandler:
   337                           	opt callstack 0
   338  00002B                     	ds	2
   339  00002D                     _TXB1InterruptHandler:
   340                           	opt callstack 0
   341  00002D                     	ds	2
   342  00002F                     _TXB0InterruptHandler:
   343                           	opt callstack 0
   344  00002F                     	ds	2
   345  000031                     _RXB1InterruptHandler:
   346                           	opt callstack 0
   347  000031                     	ds	2
   348  000033                     _RXB0InterruptHandler:
   349                           	opt callstack 0
   350  000033                     	ds	2
   351  000035                     _eusart1RxLastError:
   352                           	opt callstack 0
   353  000035                     	ds	1
   354  000036                     _eusart1RxCount:
   355                           	opt callstack 0
   356  000036                     	ds	1
   357  000037                     _eusart1RxTail:
   358                           	opt callstack 0
   359  000037                     	ds	1
   360  000038                     _eusart1RxHead:
   361                           	opt callstack 0
   362  000038                     	ds	1
   363  000039                     _eusart1TxTail:
   364                           	opt callstack 0
   365  000039                     	ds	1
   366  00003A                     _eusart1TxHead:
   367                           	opt callstack 0
   368  00003A                     	ds	1
   369                           
   370                           	psect	cstackCOMRAM
   371  000046                     __pcstackCOMRAM:
   372                           	opt callstack 0
   373  000046                     ??_INTERRUPT_InterruptManagerHigh:
   374  000046                     
   375                           ; 1 bytes @ 0x0
   376  000046                     	ds	4
   377  00004A                     ??_INTERRUPT_InterruptManagerLow:
   378  00004A                     
   379                           ; 1 bytes @ 0x4
   380  00004A                     	ds	4
   381  00004E                     ECAN_SetRXB0InterruptHandler@handler:
   382                           	opt callstack 0
   383  00004E                     ECAN_SetRXB1InterruptHandler@handler:
   384                           	opt callstack 0
   385  00004E                     ECAN_SetTXB0InterruptHandler@handler:
   386                           	opt callstack 0
   387  00004E                     ECAN_SetTXB1InterruptHandler@handler:
   388                           	opt callstack 0
   389  00004E                     ECAN_SetTXB2InterruptHandler@handler:
   390                           	opt callstack 0
   391  00004E                     ECAN_SetRXB0OverflowHandler@handler:
   392                           	opt callstack 0
   393  00004E                     ECAN_SetRXB1OverflowHandler@handler:
   394                           	opt callstack 0
   395  00004E                     ECAN_SetBusOffHandler@handler:
   396                           	opt callstack 0
   397  00004E                     ECAN_SetTXPassiveHandler@handler:
   398                           	opt callstack 0
   399  00004E                     ECAN_SetRXPassiveHandler@handler:
   400                           	opt callstack 0
   401  00004E                     ECAN_SetTXWarningHandler@handler:
   402                           	opt callstack 0
   403  00004E                     ECAN_SetRXWarningHandler@handler:
   404                           	opt callstack 0
   405  00004E                     ECAN_SetWakeUpInterruptHandler@handler:
   406                           	opt callstack 0
   407  00004E                     ECAN_SetMessageErrorInterruptHandler@handler:
   408                           	opt callstack 0
   409  00004E                     EUSART1_SetFramingErrorHandler@interruptHandler:
   410                           	opt callstack 0
   411  00004E                     EUSART1_SetOverrunErrorHandler@interruptHandler:
   412                           	opt callstack 0
   413  00004E                     EUSART1_SetErrorHandler@interruptHandler:
   414                           	opt callstack 0
   415  00004E                     EUSART1_SetTxInterruptHandler@interruptHandler:
   416                           	opt callstack 0
   417  00004E                     EUSART1_SetRxInterruptHandler@interruptHandler:
   418                           	opt callstack 0
   419                           
   420                           ; 2 bytes @ 0x8
   421  00004E                     	ds	2
   422  000050                     ??_ECAN_Initialize:
   423  000050                     
   424                           ; 1 bytes @ 0xA
   425  000050                     	ds	1
   426  000051                     
   427                           ; 1 bytes @ 0xB
   428 ;;
   429 ;;Main: autosize = 0, tempsize = 0, incstack = 0, save=0
   430 ;;
   431 ;; *************** function _main *****************
   432 ;; Defined at:
   433 ;;		line 49 in file "main.c"
   434 ;; Parameters:    Size  Location     Type
   435 ;;		None
   436 ;; Auto vars:     Size  Location     Type
   437 ;;		None
   438 ;; Return value:  Size  Location     Type
   439 ;;                  1    wreg      void 
   440 ;; Registers used:
   441 ;;		wreg, status,2, status,0, cstack
   442 ;; Tracked objects:
   443 ;;		On entry : 0/0
   444 ;;		On exit  : 0/0
   445 ;;		Unchanged: 0/0
   446 ;; Data sizes:     COMRAM   BANK0   BANK1   BANK2   BANK3   BANK4   BANK5   BANK6   BANK7   BANK8   BANK9  BANK10  BANK1
      +1  BANK12  BANK13  BANK14
   447 ;;      Params:         0       0       0       0       0       0       0       0       0       0       0       0       
      +0       0       0       0
   448 ;;      Locals:         0       0       0       0       0       0       0       0       0       0       0       0       
      +0       0       0       0
   449 ;;      Temps:          0       0       0       0       0       0       0       0       0       0       0       0       
      +0       0       0       0
   450 ;;      Totals:         0       0       0       0       0       0       0       0       0       0       0       0       
      +0       0       0       0
   451 ;;Total ram usage:        0 bytes
   452 ;; Hardware stack levels required when called:   10
   453 ;; This function calls:
   454 ;;		_SYSTEM_Initialize
   455 ;; This function is called by:
   456 ;;		Startup code after reset
   457 ;; This function uses a non-reentrant model
   458 ;;
   459                           
   460                           	psect	text0
   461  000798                     __ptext0:
   462                           	opt callstack 0
   463  000798                     _main:
   464                           	opt callstack 21
   465  000798                     
   466                           ;main.c: 52:     SYSTEM_Initialize();
   467  000798  ECB8  F003         	call	_SYSTEM_Initialize	;wreg free
   468  00079C                     l588:
   469  00079C  EFCE  F003         	goto	l588
   470  0007A0  EFAF  F000         	goto	start
   471  0007A4                     __end_of_main:
   472                           	opt callstack 0
   473                           
   474 ;; *************** function _SYSTEM_Initialize *****************
   475 ;; Defined at:
   476 ;;		line 50 in file "mcc_generated_files/mcc.c"
   477 ;; Parameters:    Size  Location     Type
   478 ;;		None
   479 ;; Auto vars:     Size  Location     Type
   480 ;;		None
   481 ;; Return value:  Size  Location     Type
   482 ;;                  1    wreg      void 
   483 ;; Registers used:
   484 ;;		wreg, status,2, status,0, cstack
   485 ;; Tracked objects:
   486 ;;		On entry : 0/0
   487 ;;		On exit  : 0/0
   488 ;;		Unchanged: 0/0
   489 ;; Data sizes:     COMRAM   BANK0   BANK1   BANK2   BANK3   BANK4   BANK5   BANK6   BANK7   BANK8   BANK9  BANK10  BANK1
      +1  BANK12  BANK13  BANK14
   490 ;;      Params:         0       0       0       0       0       0       0       0       0       0       0       0       
      +0       0       0       0
   491 ;;      Locals:         0       0       0       0       0       0       0       0       0       0       0       0       
      +0       0       0       0
   492 ;;      Temps:          0       0       0       0       0       0       0       0       0       0       0       0       
      +0       0       0       0
   493 ;;      Totals:         0       0       0       0       0       0       0       0       0       0       0       0       
      +0       0       0       0
   494 ;;Total ram usage:        0 bytes
   495 ;; Hardware stack levels used:    1
   496 ;; Hardware stack levels required when called:    9
   497 ;; This function calls:
   498 ;;		_ECAN_Initialize
   499 ;;		_EUSART1_Initialize
   500 ;;		_INTERRUPT_Initialize
   501 ;;		_OSCILLATOR_Initialize
   502 ;;		_PIN_MANAGER_Initialize
   503 ;; This function is called by:
   504 ;;		_main
   505 ;; This function uses a non-reentrant model
   506 ;;
   507                           
   508                           	psect	text1
   509  000770                     __ptext1:
   510                           	opt callstack 0
   511  000770                     _SYSTEM_Initialize:
   512                           	opt callstack 21
   513  000770                     
   514                           ;mcc_generated_files/mcc.c: 53:     INTERRUPT_Initialize();
   515  000770  ECAC  F003         	call	_INTERRUPT_Initialize	;wreg free
   516  000774                     
   517                           ;mcc_generated_files/mcc.c: 54:     PIN_MANAGER_Initialize();
   518  000774  EC0C  F003         	call	_PIN_MANAGER_Initialize	;wreg free
   519  000778                     
   520                           ;mcc_generated_files/mcc.c: 55:     OSCILLATOR_Initialize();
   521  000778  ECC3  F003         	call	_OSCILLATOR_Initialize	;wreg free
   522  00077C                     
   523                           ;mcc_generated_files/mcc.c: 56:     EUSART1_Initialize();
   524  00077C  ECB2  F002         	call	_EUSART1_Initialize	;wreg free
   525  000780                     
   526                           ;mcc_generated_files/mcc.c: 57:     ECAN_Initialize();
   527  000780  ECB1  F000         	call	_ECAN_Initialize	;wreg free
   528  000784  0012               	return		;funcret
   529  000786                     __end_of_SYSTEM_Initialize:
   530                           	opt callstack 0
   531                           
   532 ;; *************** function _PIN_MANAGER_Initialize *****************
   533 ;; Defined at:
   534 ;;		line 55 in file "mcc_generated_files/pin_manager.c"
   535 ;; Parameters:    Size  Location     Type
   536 ;;		None
   537 ;; Auto vars:     Size  Location     Type
   538 ;;		None
   539 ;; Return value:  Size  Location     Type
   540 ;;                  1    wreg      void 
   541 ;; Registers used:
   542 ;;		wreg, status,2
   543 ;; Tracked objects:
   544 ;;		On entry : 0/0
   545 ;;		On exit  : 0/0
   546 ;;		Unchanged: 0/0
   547 ;; Data sizes:     COMRAM   BANK0   BANK1   BANK2   BANK3   BANK4   BANK5   BANK6   BANK7   BANK8   BANK9  BANK10  BANK1
      +1  BANK12  BANK13  BANK14
   548 ;;      Params:         0       0       0       0       0       0       0       0       0       0       0       0       
      +0       0       0       0
   549 ;;      Locals:         0       0       0       0       0       0       0       0       0       0       0       0       
      +0       0       0       0
   550 ;;      Temps:          0       0       0       0       0       0       0       0       0       0       0       0       
      +0       0       0       0
   551 ;;      Totals:         0       0       0       0       0       0       0       0       0       0       0       0       
      +0       0       0       0
   552 ;;Total ram usage:        0 bytes
   553 ;; Hardware stack levels used:    1
   554 ;; Hardware stack levels required when called:    7
   555 ;; This function calls:
   556 ;;		Nothing
   557 ;; This function is called by:
   558 ;;		_SYSTEM_Initialize
   559 ;; This function uses a non-reentrant model
   560 ;;
   561                           
   562                           	psect	text2
   563  000618                     __ptext2:
   564                           	opt callstack 0
   565  000618                     _PIN_MANAGER_Initialize:
   566                           	opt callstack 22
   567  000618                     
   568                           ;mcc_generated_files/pin_manager.c: 60:     LATA = 0x00;
   569  000618  0E00               	movlw	0
   570  00061A  6E89               	movwf	137,c	;volatile
   571                           
   572                           ;mcc_generated_files/pin_manager.c: 61:     LATB = 0x00;
   573  00061C  0E00               	movlw	0
   574  00061E  6E8A               	movwf	138,c	;volatile
   575                           
   576                           ;mcc_generated_files/pin_manager.c: 62:     LATC = 0x00;
   577  000620  0E00               	movlw	0
   578  000622  6E8B               	movwf	139,c	;volatile
   579                           
   580                           ;mcc_generated_files/pin_manager.c: 67:     TRISA = 0xEF;
   581  000624  0EEF               	movlw	239
   582  000626  6E92               	movwf	146,c	;volatile
   583                           
   584                           ;mcc_generated_files/pin_manager.c: 68:     TRISB = 0xFB;
   585  000628  0EFB               	movlw	251
   586  00062A  6E93               	movwf	147,c	;volatile
   587                           
   588                           ;mcc_generated_files/pin_manager.c: 69:     TRISC = 0xBF;
   589  00062C  0EBF               	movlw	191
   590  00062E  6E94               	movwf	148,c	;volatile
   591                           
   592                           ;mcc_generated_files/pin_manager.c: 74:     ANCON0 = 0x1F;
   593  000630  0E1F               	movlw	31
   594  000632  010F               	movlb	15	; () banked
   595  000634  6F5D               	movwf	93,b	;volatile
   596                           
   597                           ;mcc_generated_files/pin_manager.c: 75:     ANCON1 = 0x07;
   598  000636  0E07               	movlw	7
   599  000638  6F5C               	movwf	92,b	;volatile
   600                           
   601                           ;mcc_generated_files/pin_manager.c: 80:     WPUB = 0x00;
   602  00063A  0E00               	movlw	0
   603  00063C  6F5B               	movwf	91,b	;volatile
   604  00063E                     
   605                           ; BSR set to: 15
   606                           ;mcc_generated_files/pin_manager.c: 81:     INTCON2bits.nRBPU = 1;
   607  00063E  8EF1               	bsf	241,7,c	;volatile
   608  000640                     
   609                           ; BSR set to: 15
   610  000640  0012               	return		;funcret
   611  000642                     __end_of_PIN_MANAGER_Initialize:
   612                           	opt callstack 0
   613                           
   614 ;; *************** function _OSCILLATOR_Initialize *****************
   615 ;; Defined at:
   616 ;;		line 60 in file "mcc_generated_files/mcc.c"
   617 ;; Parameters:    Size  Location     Type
   618 ;;		None
   619 ;; Auto vars:     Size  Location     Type
   620 ;;		None
   621 ;; Return value:  Size  Location     Type
   622 ;;                  1    wreg      void 
   623 ;; Registers used:
   624 ;;		wreg, status,2
   625 ;; Tracked objects:
   626 ;;		On entry : 0/0
   627 ;;		On exit  : 0/0
   628 ;;		Unchanged: 0/0
   629 ;; Data sizes:     COMRAM   BANK0   BANK1   BANK2   BANK3   BANK4   BANK5   BANK6   BANK7   BANK8   BANK9  BANK10  BANK1
      +1  BANK12  BANK13  BANK14
   630 ;;      Params:         0       0       0       0       0       0       0       0       0       0       0       0       
      +0       0       0       0
   631 ;;      Locals:         0       0       0       0       0       0       0       0       0       0       0       0       
      +0       0       0       0
   632 ;;      Temps:          0       0       0       0       0       0       0       0       0       0       0       0       
      +0       0       0       0
   633 ;;      Totals:         0       0       0       0       0       0       0       0       0       0       0       0       
      +0       0       0       0
   634 ;;Total ram usage:        0 bytes
   635 ;; Hardware stack levels used:    1
   636 ;; Hardware stack levels required when called:    7
   637 ;; This function calls:
   638 ;;		Nothing
   639 ;; This function is called by:
   640 ;;		_SYSTEM_Initialize
   641 ;; This function uses a non-reentrant model
   642 ;;
   643                           
   644                           	psect	text3
   645  000786                     __ptext3:
   646                           	opt callstack 0
   647  000786                     _OSCILLATOR_Initialize:
   648                           	opt callstack 22
   649  000786                     
   650                           ;mcc_generated_files/mcc.c: 63:     OSCCON = 0x60;
   651  000786  0E60               	movlw	96
   652  000788  6ED3               	movwf	211,c	;volatile
   653                           
   654                           ;mcc_generated_files/mcc.c: 65:     OSCCON2 = 0x00;
   655  00078A  0E00               	movlw	0
   656  00078C  6ED2               	movwf	210,c	;volatile
   657                           
   658                           ;mcc_generated_files/mcc.c: 67:     OSCTUNE = 0x00;
   659  00078E  0E00               	movlw	0
   660  000790  6E9B               	movwf	155,c	;volatile
   661                           
   662                           ;mcc_generated_files/mcc.c: 69:     REFOCON = 0x00;
   663  000792  0E00               	movlw	0
   664  000794  6E9A               	movwf	154,c	;volatile
   665  000796  0012               	return		;funcret
   666  000798                     __end_of_OSCILLATOR_Initialize:
   667                           	opt callstack 0
   668                           
   669 ;; *************** function _INTERRUPT_Initialize *****************
   670 ;; Defined at:
   671 ;;		line 52 in file "mcc_generated_files/interrupt_manager.c"
   672 ;; Parameters:    Size  Location     Type
   673 ;;		None
   674 ;; Auto vars:     Size  Location     Type
   675 ;;		None
   676 ;; Return value:  Size  Location     Type
   677 ;;                  1    wreg      void 
   678 ;; Registers used:
   679 ;;		None
   680 ;; Tracked objects:
   681 ;;		On entry : 0/0
   682 ;;		On exit  : 0/0
   683 ;;		Unchanged: 0/0
   684 ;; Data sizes:     COMRAM   BANK0   BANK1   BANK2   BANK3   BANK4   BANK5   BANK6   BANK7   BANK8   BANK9  BANK10  BANK1
      +1  BANK12  BANK13  BANK14
   685 ;;      Params:         0       0       0       0       0       0       0       0       0       0       0       0       
      +0       0       0       0
   686 ;;      Locals:         0       0       0       0       0       0       0       0       0       0       0       0       
      +0       0       0       0
   687 ;;      Temps:          0       0       0       0       0       0       0       0       0       0       0       0       
      +0       0       0       0
   688 ;;      Totals:         0       0       0       0       0       0       0       0       0       0       0       0       
      +0       0       0       0
   689 ;;Total ram usage:        0 bytes
   690 ;; Hardware stack levels used:    1
   691 ;; Hardware stack levels required when called:    7
   692 ;; This function calls:
   693 ;;		Nothing
   694 ;; This function is called by:
   695 ;;		_SYSTEM_Initialize
   696 ;; This function uses a non-reentrant model
   697 ;;
   698                           
   699                           	psect	text4
   700  000758                     __ptext4:
   701                           	opt callstack 0
   702  000758                     _INTERRUPT_Initialize:
   703                           	opt callstack 22
   704  000758                     
   705                           ;mcc_generated_files/interrupt_manager.c: 55:     RCONbits.IPEN = 1;
   706  000758  8ED0               	bsf	208,7,c	;volatile
   707                           
   708                           ;mcc_generated_files/interrupt_manager.c: 60:     IPR1bits.TX1IP = 1;
   709  00075A  889F               	bsf	159,4,c	;volatile
   710                           
   711                           ;mcc_generated_files/interrupt_manager.c: 63:     IPR1bits.RC1IP = 1;
   712  00075C  8A9F               	bsf	159,5,c	;volatile
   713                           
   714                           ;mcc_generated_files/interrupt_manager.c: 67:     IPR5bits.WAKIP = 0;
   715  00075E  9C78               	bcf	120,6,c	;volatile
   716                           
   717                           ;mcc_generated_files/interrupt_manager.c: 70:     IPR5bits.ERRIP = 0;
   718  000760  9A78               	bcf	120,5,c	;volatile
   719                           
   720                           ;mcc_generated_files/interrupt_manager.c: 73:     IPR5bits.RXB1IP = 0;
   721  000762  9278               	bcf	120,1,c	;volatile
   722                           
   723                           ;mcc_generated_files/interrupt_manager.c: 76:     IPR5bits.IRXIP = 0;
   724  000764  9E78               	bcf	120,7,c	;volatile
   725                           
   726                           ;mcc_generated_files/interrupt_manager.c: 79:     IPR5bits.RXB0IP = 0;
   727  000766  9078               	bcf	120,0,c	;volatile
   728                           
   729                           ;mcc_generated_files/interrupt_manager.c: 82:     IPR5bits.TXB2IP = 0;
   730  000768  9878               	bcf	120,4,c	;volatile
   731                           
   732                           ;mcc_generated_files/interrupt_manager.c: 85:     IPR5bits.TXB1IP = 0;
   733  00076A  9678               	bcf	120,3,c	;volatile
   734                           
   735                           ;mcc_generated_files/interrupt_manager.c: 88:     IPR5bits.TXB0IP = 0;
   736  00076C  9478               	bcf	120,2,c	;volatile
   737  00076E  0012               	return		;funcret
   738  000770                     __end_of_INTERRUPT_Initialize:
   739                           	opt callstack 0
   740                           
   741 ;; *************** function _EUSART1_Initialize *****************
   742 ;; Defined at:
   743 ;;		line 88 in file "mcc_generated_files/eusart1.c"
   744 ;; Parameters:    Size  Location     Type
   745 ;;		None
   746 ;; Auto vars:     Size  Location     Type
   747 ;;		None
   748 ;; Return value:  Size  Location     Type
   749 ;;                  1    wreg      void 
   750 ;; Registers used:
   751 ;;		wreg, status,2, status,0, cstack
   752 ;; Tracked objects:
   753 ;;		On entry : 0/0
   754 ;;		On exit  : 0/0
   755 ;;		Unchanged: 0/0
   756 ;; Data sizes:     COMRAM   BANK0   BANK1   BANK2   BANK3   BANK4   BANK5   BANK6   BANK7   BANK8   BANK9  BANK10  BANK1
      +1  BANK12  BANK13  BANK14
   757 ;;      Params:         0       0       0       0       0       0       0       0       0       0       0       0       
      +0       0       0       0
   758 ;;      Locals:         0       0       0       0       0       0       0       0       0       0       0       0       
      +0       0       0       0
   759 ;;      Temps:          0       0       0       0       0       0       0       0       0       0       0       0       
      +0       0       0       0
   760 ;;      Totals:         0       0       0       0       0       0       0       0       0       0       0       0       
      +0       0       0       0
   761 ;;Total ram usage:        0 bytes
   762 ;; Hardware stack levels used:    1
   763 ;; Hardware stack levels required when called:    8
   764 ;; This function calls:
   765 ;;		_EUSART1_SetErrorHandler
   766 ;;		_EUSART1_SetFramingErrorHandler
   767 ;;		_EUSART1_SetOverrunErrorHandler
   768 ;;		_EUSART1_SetRxInterruptHandler
   769 ;;		_EUSART1_SetTxInterruptHandler
   770 ;; This function is called by:
   771 ;;		_SYSTEM_Initialize
   772 ;; This function uses a non-reentrant model
   773 ;;
   774                           
   775                           	psect	text5
   776  000564                     __ptext5:
   777                           	opt callstack 0
   778  000564                     _EUSART1_Initialize:
   779                           	opt callstack 21
   780  000564                     
   781                           ;mcc_generated_files/eusart1.c: 91:     PIE1bits.RC1IE = 0;
   782  000564  9A9D               	bcf	157,5,c	;volatile
   783  000566                     
   784                           ;mcc_generated_files/eusart1.c: 92:     EUSART1_SetRxInterruptHandler(EUSART1_Receive_IS
      +                          R);
   785  000566  0E14               	movlw	low _EUSART1_Receive_ISR
   786  000568  6E4E               	movwf	EUSART1_SetRxInterruptHandler@interruptHandler^0,c
   787  00056A  0E04               	movlw	high _EUSART1_Receive_ISR
   788  00056C  6E4F               	movwf	(EUSART1_SetRxInterruptHandler@interruptHandler+1)^0,c
   789  00056E  ECD7  F003         	call	_EUSART1_SetRxInterruptHandler	;wreg free
   790  000572                     
   791                           ;mcc_generated_files/eusart1.c: 93:     PIE1bits.TX1IE = 0;
   792  000572  989D               	bcf	157,4,c	;volatile
   793                           
   794                           ;mcc_generated_files/eusart1.c: 94:     EUSART1_SetTxInterruptHandler(EUSART1_Transmit_I
      +                          SR);
   795  000574  0ED8               	movlw	low _EUSART1_Transmit_ISR
   796  000576  6E4E               	movwf	EUSART1_SetTxInterruptHandler@interruptHandler^0,c
   797  000578  0E05               	movlw	high _EUSART1_Transmit_ISR
   798  00057A  6E4F               	movwf	(EUSART1_SetTxInterruptHandler@interruptHandler+1)^0,c
   799  00057C  ECD2  F003         	call	_EUSART1_SetTxInterruptHandler	;wreg free
   800  000580                     
   801                           ;mcc_generated_files/eusart1.c: 98:     BAUDCON1 = 0x08;
   802  000580  0E08               	movlw	8
   803  000582  6EA7               	movwf	167,c	;volatile
   804  000584                     
   805                           ;mcc_generated_files/eusart1.c: 101:     RCSTA1 = 0x90;
   806  000584  0E90               	movlw	144
   807  000586  6EAB               	movwf	171,c	;volatile
   808  000588                     
   809                           ;mcc_generated_files/eusart1.c: 104:     TXSTA1 = 0x24;
   810  000588  0E24               	movlw	36
   811  00058A  6EAC               	movwf	172,c	;volatile
   812  00058C                     
   813                           ;mcc_generated_files/eusart1.c: 107:     SPBRG1 = 0xE1;
   814  00058C  0EE1               	movlw	225
   815  00058E  6EAF               	movwf	175,c	;volatile
   816  000590                     
   817                           ;mcc_generated_files/eusart1.c: 110:     SPBRGH1 = 0x04;
   818  000590  0E04               	movlw	4
   819  000592  6E7D               	movwf	125,c	;volatile
   820  000594                     
   821                           ;mcc_generated_files/eusart1.c: 113:     EUSART1_SetFramingErrorHandler(EUSART1_DefaultF
      +                          ramingErrorHandler);
   822  000594  0E8A               	movlw	low _EUSART1_DefaultFramingErrorHandler
   823  000596  6E4E               	movwf	EUSART1_SetFramingErrorHandler@interruptHandler^0,c
   824  000598  0E08               	movlw	high _EUSART1_DefaultFramingErrorHandler
   825  00059A  6E4F               	movwf	(EUSART1_SetFramingErrorHandler@interruptHandler+1)^0,c
   826  00059C  ECE1  F003         	call	_EUSART1_SetFramingErrorHandler	;wreg free
   827  0005A0                     
   828                           ;mcc_generated_files/eusart1.c: 114:     EUSART1_SetOverrunErrorHandler(EUSART1_DefaultO
      +                          verrunErrorHandler);
   829  0005A0  0E62               	movlw	low _EUSART1_DefaultOverrunErrorHandler
   830  0005A2  6E4E               	movwf	EUSART1_SetOverrunErrorHandler@interruptHandler^0,c
   831  0005A4  0E08               	movlw	high _EUSART1_DefaultOverrunErrorHandler
   832  0005A6  6E4F               	movwf	(EUSART1_SetOverrunErrorHandler@interruptHandler+1)^0,c
   833  0005A8  ECDC  F003         	call	_EUSART1_SetOverrunErrorHandler	;wreg free
   834  0005AC                     
   835                           ;mcc_generated_files/eusart1.c: 115:     EUSART1_SetErrorHandler(EUSART1_DefaultErrorHan
      +                          dler);
   836  0005AC  0E68               	movlw	low _EUSART1_DefaultErrorHandler
   837  0005AE  6E4E               	movwf	EUSART1_SetErrorHandler@interruptHandler^0,c
   838  0005B0  0E08               	movlw	high _EUSART1_DefaultErrorHandler
   839  0005B2  6E4F               	movwf	(EUSART1_SetErrorHandler@interruptHandler+1)^0,c
   840  0005B4  ECE6  F003         	call	_EUSART1_SetErrorHandler	;wreg free
   841                           
   842                           ;mcc_generated_files/eusart1.c: 117:     eusart1RxLastError.status = 0;
   843  0005B8  0E00               	movlw	0
   844  0005BA  6E35               	movwf	_eusart1RxLastError^0,c	;volatile
   845                           
   846                           ;mcc_generated_files/eusart1.c: 120:     eusart1TxHead = 0;
   847  0005BC  0E00               	movlw	0
   848  0005BE  6E3A               	movwf	_eusart1TxHead^0,c	;volatile
   849                           
   850                           ;mcc_generated_files/eusart1.c: 121:     eusart1TxTail = 0;
   851  0005C0  0E00               	movlw	0
   852  0005C2  6E39               	movwf	_eusart1TxTail^0,c	;volatile
   853                           
   854                           ;mcc_generated_files/eusart1.c: 122:     eusart1TxBufferRemaining = sizeof(eusart1TxBuff
      +                          er);
   855  0005C4  0E08               	movlw	8
   856  0005C6  6E45               	movwf	_eusart1TxBufferRemaining^0,c	;volatile
   857                           
   858                           ;mcc_generated_files/eusart1.c: 124:     eusart1RxHead = 0;
   859  0005C8  0E00               	movlw	0
   860  0005CA  6E38               	movwf	_eusart1RxHead^0,c	;volatile
   861                           
   862                           ;mcc_generated_files/eusart1.c: 125:     eusart1RxTail = 0;
   863  0005CC  0E00               	movlw	0
   864  0005CE  6E37               	movwf	_eusart1RxTail^0,c	;volatile
   865                           
   866                           ;mcc_generated_files/eusart1.c: 126:     eusart1RxCount = 0;
   867  0005D0  0E00               	movlw	0
   868  0005D2  6E36               	movwf	_eusart1RxCount^0,c	;volatile
   869  0005D4                     
   870                           ;mcc_generated_files/eusart1.c: 129:     PIE1bits.RC1IE = 1;
   871  0005D4  8A9D               	bsf	157,5,c	;volatile
   872  0005D6  0012               	return		;funcret
   873  0005D8                     __end_of_EUSART1_Initialize:
   874                           	opt callstack 0
   875                           
   876 ;; *************** function _EUSART1_SetTxInterruptHandler *****************
   877 ;; Defined at:
   878 ;;		line 276 in file "mcc_generated_files/eusart1.c"
   879 ;; Parameters:    Size  Location     Type
   880 ;;  interruptHan    2    8[COMRAM] PTR FTN()void 
   881 ;;		 -> EUSART1_Transmit_ISR(1), 
   882 ;; Auto vars:     Size  Location     Type
   883 ;;		None
   884 ;; Return value:  Size  Location     Type
   885 ;;                  1    wreg      void 
   886 ;; Registers used:
   887 ;;		wreg, status,2, status,0
   888 ;; Tracked objects:
   889 ;;		On entry : 0/0
   890 ;;		On exit  : 0/0
   891 ;;		Unchanged: 0/0
   892 ;; Data sizes:     COMRAM   BANK0   BANK1   BANK2   BANK3   BANK4   BANK5   BANK6   BANK7   BANK8   BANK9  BANK10  BANK1
      +1  BANK12  BANK13  BANK14
   893 ;;      Params:         2       0       0       0       0       0       0       0       0       0       0       0       
      +0       0       0       0
   894 ;;      Locals:         0       0       0       0       0       0       0       0       0       0       0       0       
      +0       0       0       0
   895 ;;      Temps:          0       0       0       0       0       0       0       0       0       0       0       0       
      +0       0       0       0
   896 ;;      Totals:         2       0       0       0       0       0       0       0       0       0       0       0       
      +0       0       0       0
   897 ;;Total ram usage:        2 bytes
   898 ;; Hardware stack levels used:    1
   899 ;; Hardware stack levels required when called:    7
   900 ;; This function calls:
   901 ;;		Nothing
   902 ;; This function is called by:
   903 ;;		_EUSART1_Initialize
   904 ;; This function uses a non-reentrant model
   905 ;;
   906                           
   907                           	psect	text6
   908  0007A4                     __ptext6:
   909                           	opt callstack 0
   910  0007A4                     _EUSART1_SetTxInterruptHandler:
   911                           	opt callstack 21
   912  0007A4                     
   913                           ;mcc_generated_files/eusart1.c: 277:     EUSART1_TxDefaultInterruptHandler = interruptHa
      +                          ndler;
   914  0007A4  C04E  F043         	movff	EUSART1_SetTxInterruptHandler@interruptHandler,_EUSART1_TxDefaultInterruptHandler
   915  0007A8  C04F  F044         	movff	EUSART1_SetTxInterruptHandler@interruptHandler+1,_EUSART1_TxDefaultInterruptHandl
      +                          er+1
   916  0007AC  0012               	return		;funcret
   917  0007AE                     __end_of_EUSART1_SetTxInterruptHandler:
   918                           	opt callstack 0
   919                           
   920 ;; *************** function _EUSART1_SetRxInterruptHandler *****************
   921 ;; Defined at:
   922 ;;		line 280 in file "mcc_generated_files/eusart1.c"
   923 ;; Parameters:    Size  Location     Type
   924 ;;  interruptHan    2    8[COMRAM] PTR FTN()void 
   925 ;;		 -> EUSART1_Receive_ISR(1), 
   926 ;; Auto vars:     Size  Location     Type
   927 ;;		None
   928 ;; Return value:  Size  Location     Type
   929 ;;                  1    wreg      void 
   930 ;; Registers used:
   931 ;;		wreg, status,2, status,0
   932 ;; Tracked objects:
   933 ;;		On entry : 0/0
   934 ;;		On exit  : 0/0
   935 ;;		Unchanged: 0/0
   936 ;; Data sizes:     COMRAM   BANK0   BANK1   BANK2   BANK3   BANK4   BANK5   BANK6   BANK7   BANK8   BANK9  BANK10  BANK1
      +1  BANK12  BANK13  BANK14
   937 ;;      Params:         2       0       0       0       0       0       0       0       0       0       0       0       
      +0       0       0       0
   938 ;;      Locals:         0       0       0       0       0       0       0       0       0       0       0       0       
      +0       0       0       0
   939 ;;      Temps:          0       0       0       0       0       0       0       0       0       0       0       0       
      +0       0       0       0
   940 ;;      Totals:         2       0       0       0       0       0       0       0       0       0       0       0       
      +0       0       0       0
   941 ;;Total ram usage:        2 bytes
   942 ;; Hardware stack levels used:    1
   943 ;; Hardware stack levels required when called:    7
   944 ;; This function calls:
   945 ;;		Nothing
   946 ;; This function is called by:
   947 ;;		_EUSART1_Initialize
   948 ;; This function uses a non-reentrant model
   949 ;;
   950                           
   951                           	psect	text7
   952  0007AE                     __ptext7:
   953                           	opt callstack 0
   954  0007AE                     _EUSART1_SetRxInterruptHandler:
   955                           	opt callstack 21
   956  0007AE                     
   957                           ;mcc_generated_files/eusart1.c: 281:     EUSART1_RxDefaultInterruptHandler = interruptHa
      +                          ndler;
   958  0007AE  C04E  F041         	movff	EUSART1_SetRxInterruptHandler@interruptHandler,_EUSART1_RxDefaultInterruptHandler
   959  0007B2  C04F  F042         	movff	EUSART1_SetRxInterruptHandler@interruptHandler+1,_EUSART1_RxDefaultInterruptHandl
      +                          er+1
   960  0007B6  0012               	return		;funcret
   961  0007B8                     __end_of_EUSART1_SetRxInterruptHandler:
   962                           	opt callstack 0
   963                           
   964 ;; *************** function _EUSART1_SetOverrunErrorHandler *****************
   965 ;; Defined at:
   966 ;;		line 268 in file "mcc_generated_files/eusart1.c"
   967 ;; Parameters:    Size  Location     Type
   968 ;;  interruptHan    2    8[COMRAM] PTR FTN()void 
   969 ;;		 -> EUSART1_DefaultOverrunErrorHandler(1), 
   970 ;; Auto vars:     Size  Location     Type
   971 ;;		None
   972 ;; Return value:  Size  Location     Type
   973 ;;                  1    wreg      void 
   974 ;; Registers used:
   975 ;;		wreg, status,2, status,0
   976 ;; Tracked objects:
   977 ;;		On entry : 0/0
   978 ;;		On exit  : 0/0
   979 ;;		Unchanged: 0/0
   980 ;; Data sizes:     COMRAM   BANK0   BANK1   BANK2   BANK3   BANK4   BANK5   BANK6   BANK7   BANK8   BANK9  BANK10  BANK1
      +1  BANK12  BANK13  BANK14
   981 ;;      Params:         2       0       0       0       0       0       0       0       0       0       0       0       
      +0       0       0       0
   982 ;;      Locals:         0       0       0       0       0       0       0       0       0       0       0       0       
      +0       0       0       0
   983 ;;      Temps:          0       0       0       0       0       0       0       0       0       0       0       0       
      +0       0       0       0
   984 ;;      Totals:         2       0       0       0       0       0       0       0       0       0       0       0       
      +0       0       0       0
   985 ;;Total ram usage:        2 bytes
   986 ;; Hardware stack levels used:    1
   987 ;; Hardware stack levels required when called:    7
   988 ;; This function calls:
   989 ;;		Nothing
   990 ;; This function is called by:
   991 ;;		_EUSART1_Initialize
   992 ;; This function uses a non-reentrant model
   993 ;;
   994                           
   995                           	psect	text8
   996  0007B8                     __ptext8:
   997                           	opt callstack 0
   998  0007B8                     _EUSART1_SetOverrunErrorHandler:
   999                           	opt callstack 21
  1000  0007B8                     
  1001                           ;mcc_generated_files/eusart1.c: 269:     EUSART1_OverrunErrorHandler = interruptHandler;
  1002  0007B8  C04E  F03D         	movff	EUSART1_SetOverrunErrorHandler@interruptHandler,_EUSART1_OverrunErrorHandler
  1003  0007BC  C04F  F03E         	movff	EUSART1_SetOverrunErrorHandler@interruptHandler+1,_EUSART1_OverrunErrorHandler+1
  1004  0007C0  0012               	return		;funcret
  1005  0007C2                     __end_of_EUSART1_SetOverrunErrorHandler:
  1006                           	opt callstack 0
  1007                           
  1008 ;; *************** function _EUSART1_SetFramingErrorHandler *****************
  1009 ;; Defined at:
  1010 ;;		line 264 in file "mcc_generated_files/eusart1.c"
  1011 ;; Parameters:    Size  Location     Type
  1012 ;;  interruptHan    2    8[COMRAM] PTR FTN()void 
  1013 ;;		 -> EUSART1_DefaultFramingErrorHandler(1), 
  1014 ;; Auto vars:     Size  Location     Type
  1015 ;;		None
  1016 ;; Return value:  Size  Location     Type
  1017 ;;                  1    wreg      void 
  1018 ;; Registers used:
  1019 ;;		wreg, status,2, status,0
  1020 ;; Tracked objects:
  1021 ;;		On entry : 0/0
  1022 ;;		On exit  : 0/0
  1023 ;;		Unchanged: 0/0
  1024 ;; Data sizes:     COMRAM   BANK0   BANK1   BANK2   BANK3   BANK4   BANK5   BANK6   BANK7   BANK8   BANK9  BANK10  BANK1
      +1  BANK12  BANK13  BANK14
  1025 ;;      Params:         2       0       0       0       0       0       0       0       0       0       0       0       
      +0       0       0       0
  1026 ;;      Locals:         0       0       0       0       0       0       0       0       0       0       0       0       
      +0       0       0       0
  1027 ;;      Temps:          0       0       0       0       0       0       0       0       0       0       0       0       
      +0       0       0       0
  1028 ;;      Totals:         2       0       0       0       0       0       0       0       0       0       0       0       
      +0       0       0       0
  1029 ;;Total ram usage:        2 bytes
  1030 ;; Hardware stack levels used:    1
  1031 ;; Hardware stack levels required when called:    7
  1032 ;; This function calls:
  1033 ;;		Nothing
  1034 ;; This function is called by:
  1035 ;;		_EUSART1_Initialize
  1036 ;; This function uses a non-reentrant model
  1037 ;;
  1038                           
  1039                           	psect	text9
  1040  0007C2                     __ptext9:
  1041                           	opt callstack 0
  1042  0007C2                     _EUSART1_SetFramingErrorHandler:
  1043                           	opt callstack 21
  1044  0007C2                     
  1045                           ;mcc_generated_files/eusart1.c: 265:     EUSART1_FramingErrorHandler = interruptHandler;
  1046  0007C2  C04E  F03F         	movff	EUSART1_SetFramingErrorHandler@interruptHandler,_EUSART1_FramingErrorHandler
  1047  0007C6  C04F  F040         	movff	EUSART1_SetFramingErrorHandler@interruptHandler+1,_EUSART1_FramingErrorHandler+1
  1048  0007CA  0012               	return		;funcret
  1049  0007CC                     __end_of_EUSART1_SetFramingErrorHandler:
  1050                           	opt callstack 0
  1051                           
  1052 ;; *************** function _EUSART1_SetErrorHandler *****************
  1053 ;; Defined at:
  1054 ;;		line 272 in file "mcc_generated_files/eusart1.c"
  1055 ;; Parameters:    Size  Location     Type
  1056 ;;  interruptHan    2    8[COMRAM] PTR FTN()void 
  1057 ;;		 -> EUSART1_DefaultErrorHandler(1), 
  1058 ;; Auto vars:     Size  Location     Type
  1059 ;;		None
  1060 ;; Return value:  Size  Location     Type
  1061 ;;                  1    wreg      void 
  1062 ;; Registers used:
  1063 ;;		wreg, status,2, status,0
  1064 ;; Tracked objects:
  1065 ;;		On entry : 0/0
  1066 ;;		On exit  : 0/0
  1067 ;;		Unchanged: 0/0
  1068 ;; Data sizes:     COMRAM   BANK0   BANK1   BANK2   BANK3   BANK4   BANK5   BANK6   BANK7   BANK8   BANK9  BANK10  BANK1
      +1  BANK12  BANK13  BANK14
  1069 ;;      Params:         2       0       0       0       0       0       0       0       0       0       0       0       
      +0       0       0       0
  1070 ;;      Locals:         0       0       0       0       0       0       0       0       0       0       0       0       
      +0       0       0       0
  1071 ;;      Temps:          0       0       0       0       0       0       0       0       0       0       0       0       
      +0       0       0       0
  1072 ;;      Totals:         2       0       0       0       0       0       0       0       0       0       0       0       
      +0       0       0       0
  1073 ;;Total ram usage:        2 bytes
  1074 ;; Hardware stack levels used:    1
  1075 ;; Hardware stack levels required when called:    7
  1076 ;; This function calls:
  1077 ;;		Nothing
  1078 ;; This function is called by:
  1079 ;;		_EUSART1_Initialize
  1080 ;; This function uses a non-reentrant model
  1081 ;;
  1082                           
  1083                           	psect	text10
  1084  0007CC                     __ptext10:
  1085                           	opt callstack 0
  1086  0007CC                     _EUSART1_SetErrorHandler:
  1087                           	opt callstack 21
  1088  0007CC                     
  1089                           ;mcc_generated_files/eusart1.c: 273:     EUSART1_ErrorHandler = interruptHandler;
  1090  0007CC  C04E  F03B         	movff	EUSART1_SetErrorHandler@interruptHandler,_EUSART1_ErrorHandler
  1091  0007D0  C04F  F03C         	movff	EUSART1_SetErrorHandler@interruptHandler+1,_EUSART1_ErrorHandler+1
  1092  0007D4  0012               	return		;funcret
  1093  0007D6                     __end_of_EUSART1_SetErrorHandler:
  1094                           	opt callstack 0
  1095                           
  1096 ;; *************** function _ECAN_Initialize *****************
  1097 ;; Defined at:
  1098 ;;		line 91 in file "mcc_generated_files/ecan.c"
  1099 ;; Parameters:    Size  Location     Type
  1100 ;;		None
  1101 ;; Auto vars:     Size  Location     Type
  1102 ;;		None
  1103 ;; Return value:  Size  Location     Type
  1104 ;;                  1    wreg      void 
  1105 ;; Registers used:
  1106 ;;		wreg, status,2, status,0, cstack
  1107 ;; Tracked objects:
  1108 ;;		On entry : 0/0
  1109 ;;		On exit  : 0/0
  1110 ;;		Unchanged: 0/0
  1111 ;; Data sizes:     COMRAM   BANK0   BANK1   BANK2   BANK3   BANK4   BANK5   BANK6   BANK7   BANK8   BANK9  BANK10  BANK1
      +1  BANK12  BANK13  BANK14
  1112 ;;      Params:         0       0       0       0       0       0       0       0       0       0       0       0       
      +0       0       0       0
  1113 ;;      Locals:         0       0       0       0       0       0       0       0       0       0       0       0       
      +0       0       0       0
  1114 ;;      Temps:          1       0       0       0       0       0       0       0       0       0       0       0       
      +0       0       0       0
  1115 ;;      Totals:         1       0       0       0       0       0       0       0       0       0       0       0       
      +0       0       0       0
  1116 ;;Total ram usage:        1 bytes
  1117 ;; Hardware stack levels used:    1
  1118 ;; Hardware stack levels required when called:    8
  1119 ;; This function calls:
  1120 ;;		_ECAN_SetBusOffHandler
  1121 ;;		_ECAN_SetMessageErrorInterruptHandler
  1122 ;;		_ECAN_SetRXB0InterruptHandler
  1123 ;;		_ECAN_SetRXB0OverflowHandler
  1124 ;;		_ECAN_SetRXB1InterruptHandler
  1125 ;;		_ECAN_SetRXB1OverflowHandler
  1126 ;;		_ECAN_SetRXPassiveHandler
  1127 ;;		_ECAN_SetRXWarningHandler
  1128 ;;		_ECAN_SetTXB0InterruptHandler
  1129 ;;		_ECAN_SetTXB1InterruptHandler
  1130 ;;		_ECAN_SetTXB2InterruptHandler
  1131 ;;		_ECAN_SetTXPassiveHandler
  1132 ;;		_ECAN_SetTXWarningHandler
  1133 ;;		_ECAN_SetWakeUpInterruptHandler
  1134 ;; This function is called by:
  1135 ;;		_SYSTEM_Initialize
  1136 ;; This function uses a non-reentrant model
  1137 ;;
  1138                           
  1139                           	psect	text11
  1140  000162                     __ptext11:
  1141                           	opt callstack 0
  1142  000162                     _ECAN_Initialize:
  1143                           	opt callstack 21
  1144  000162                     
  1145                           ;mcc_generated_files/ecan.c: 93:     CANCON = 0x80;
  1146  000162  0E80               	movlw	128
  1147  000164  6E6F               	movwf	111,c	;volatile
  1148  000166                     l2111:
  1149  000166  506E               	movf	110,w,c	;volatile
  1150  000168  0BE0               	andlw	224
  1151  00016A  0A80               	xorlw	128
  1152  00016C  A4D8               	btfss	status,2,c
  1153  00016E  EFBB  F000         	goto	u791
  1154  000172  EFBD  F000         	goto	u790
  1155  000176                     u791:
  1156  000176  EFB3  F000         	goto	l2111
  1157  00017A                     u790:
  1158  00017A                     
  1159                           ;mcc_generated_files/ecan.c: 99:     ECANCON = 0x00;
  1160  00017A  0E00               	movlw	0
  1161  00017C  6E72               	movwf	114,c	;volatile
  1162                           
  1163                           ;mcc_generated_files/ecan.c: 104:     CIOCON = 0x20;
  1164  00017E  0E20               	movlw	32
  1165  000180  6E70               	movwf	112,c	;volatile
  1166                           
  1167                           ;mcc_generated_files/ecan.c: 117:     RXM0EIDH = 0x00;
  1168  000182  0E00               	movlw	0
  1169  000184  010E               	movlb	14	; () banked
  1170  000186  6FFA               	movwf	250,b	;volatile
  1171                           
  1172                           ;mcc_generated_files/ecan.c: 118:     RXM0EIDL = 0x00;
  1173  000188  0E00               	movlw	0
  1174  00018A  6FFB               	movwf	251,b	;volatile
  1175                           
  1176                           ;mcc_generated_files/ecan.c: 119:     RXM0SIDH = 0x00;
  1177  00018C  0E00               	movlw	0
  1178  00018E  6FF8               	movwf	248,b	;volatile
  1179                           
  1180                           ;mcc_generated_files/ecan.c: 120:     RXM0SIDL = 0x00;
  1181  000190  0E00               	movlw	0
  1182  000192  6FF9               	movwf	249,b	;volatile
  1183                           
  1184                           ;mcc_generated_files/ecan.c: 121:     RXM1EIDH = 0x00;
  1185  000194  0E00               	movlw	0
  1186  000196  6FFE               	movwf	254,b	;volatile
  1187                           
  1188                           ;mcc_generated_files/ecan.c: 122:     RXM1EIDL = 0x00;
  1189  000198  0E00               	movlw	0
  1190  00019A  6FFF               	movwf	255,b	;volatile
  1191                           
  1192                           ;mcc_generated_files/ecan.c: 123:     RXM1SIDH = 0x00;
  1193  00019C  0E00               	movlw	0
  1194  00019E  6FFC               	movwf	252,b	;volatile
  1195                           
  1196                           ;mcc_generated_files/ecan.c: 124:     RXM1SIDL = 0x00;
  1197  0001A0  0E00               	movlw	0
  1198  0001A2  6FFD               	movwf	253,b	;volatile
  1199                           
  1200                           ;mcc_generated_files/ecan.c: 129:     RXF0EIDH = 0x00;
  1201  0001A4  0E00               	movlw	0
  1202  0001A6  6FE2               	movwf	226,b	;volatile
  1203                           
  1204                           ;mcc_generated_files/ecan.c: 130:     RXF0EIDL = 0x00;
  1205  0001A8  0E00               	movlw	0
  1206  0001AA  6FE3               	movwf	227,b	;volatile
  1207                           
  1208                           ;mcc_generated_files/ecan.c: 131:     RXF0SIDH = 0x00;
  1209  0001AC  0E00               	movlw	0
  1210  0001AE  6FE0               	movwf	224,b	;volatile
  1211                           
  1212                           ;mcc_generated_files/ecan.c: 132:     RXF0SIDL = 0x00;
  1213  0001B0  0E00               	movlw	0
  1214  0001B2  6FE1               	movwf	225,b	;volatile
  1215                           
  1216                           ;mcc_generated_files/ecan.c: 133:     RXF1EIDH = 0x00;
  1217  0001B4  0E00               	movlw	0
  1218  0001B6  6FE6               	movwf	230,b	;volatile
  1219                           
  1220                           ;mcc_generated_files/ecan.c: 134:     RXF1EIDL = 0x00;
  1221  0001B8  0E00               	movlw	0
  1222  0001BA  6FE7               	movwf	231,b	;volatile
  1223                           
  1224                           ;mcc_generated_files/ecan.c: 135:     RXF1SIDH = 0x00;
  1225  0001BC  0E00               	movlw	0
  1226  0001BE  6FE4               	movwf	228,b	;volatile
  1227                           
  1228                           ;mcc_generated_files/ecan.c: 136:     RXF1SIDL = 0x00;
  1229  0001C0  0E00               	movlw	0
  1230  0001C2  6FE5               	movwf	229,b	;volatile
  1231                           
  1232                           ;mcc_generated_files/ecan.c: 137:     RXF2EIDH = 0x00;
  1233  0001C4  0E00               	movlw	0
  1234  0001C6  6FEA               	movwf	234,b	;volatile
  1235                           
  1236                           ;mcc_generated_files/ecan.c: 138:     RXF2EIDL = 0x00;
  1237  0001C8  0E00               	movlw	0
  1238  0001CA  6FEB               	movwf	235,b	;volatile
  1239                           
  1240                           ;mcc_generated_files/ecan.c: 139:     RXF2SIDH = 0x00;
  1241  0001CC  0E00               	movlw	0
  1242  0001CE  6FE8               	movwf	232,b	;volatile
  1243                           
  1244                           ;mcc_generated_files/ecan.c: 140:     RXF2SIDL = 0x00;
  1245  0001D0  0E00               	movlw	0
  1246  0001D2  6FE9               	movwf	233,b	;volatile
  1247                           
  1248                           ;mcc_generated_files/ecan.c: 141:     RXF3EIDH = 0x00;
  1249  0001D4  0E00               	movlw	0
  1250  0001D6  6FEE               	movwf	238,b	;volatile
  1251                           
  1252                           ;mcc_generated_files/ecan.c: 142:     RXF3EIDL = 0x00;
  1253  0001D8  0E00               	movlw	0
  1254  0001DA  6FEF               	movwf	239,b	;volatile
  1255                           
  1256                           ;mcc_generated_files/ecan.c: 143:     RXF3SIDH = 0x00;
  1257  0001DC  0E00               	movlw	0
  1258  0001DE  6FEC               	movwf	236,b	;volatile
  1259                           
  1260                           ;mcc_generated_files/ecan.c: 144:     RXF3SIDL = 0x00;
  1261  0001E0  0E00               	movlw	0
  1262  0001E2  6FED               	movwf	237,b	;volatile
  1263                           
  1264                           ;mcc_generated_files/ecan.c: 145:     RXF4EIDH = 0x00;
  1265  0001E4  0E00               	movlw	0
  1266  0001E6  6FF2               	movwf	242,b	;volatile
  1267                           
  1268                           ;mcc_generated_files/ecan.c: 146:     RXF4EIDL = 0x00;
  1269  0001E8  0E00               	movlw	0
  1270  0001EA  6FF3               	movwf	243,b	;volatile
  1271                           
  1272                           ;mcc_generated_files/ecan.c: 147:     RXF4SIDH = 0x00;
  1273  0001EC  0E00               	movlw	0
  1274  0001EE  6FF0               	movwf	240,b	;volatile
  1275                           
  1276                           ;mcc_generated_files/ecan.c: 148:     RXF4SIDL = 0x00;
  1277  0001F0  0E00               	movlw	0
  1278  0001F2  6FF1               	movwf	241,b	;volatile
  1279                           
  1280                           ;mcc_generated_files/ecan.c: 149:     RXF5EIDH = 0x00;
  1281  0001F4  0E00               	movlw	0
  1282  0001F6  6FF6               	movwf	246,b	;volatile
  1283                           
  1284                           ;mcc_generated_files/ecan.c: 150:     RXF5EIDL = 0x00;
  1285  0001F8  0E00               	movlw	0
  1286  0001FA  6FF7               	movwf	247,b	;volatile
  1287                           
  1288                           ;mcc_generated_files/ecan.c: 151:     RXF5SIDH = 0x00;
  1289  0001FC  0E00               	movlw	0
  1290  0001FE  6FF4               	movwf	244,b	;volatile
  1291                           
  1292                           ;mcc_generated_files/ecan.c: 152:     RXF5SIDL = 0x00;
  1293  000200  0E00               	movlw	0
  1294  000202  6FF5               	movwf	245,b	;volatile
  1295                           
  1296                           ;mcc_generated_files/ecan.c: 167:     BRGCON1 = 0x3B;
  1297  000204  0E3B               	movlw	59
  1298  000206  6F43               	movwf	67,b	;volatile
  1299                           
  1300                           ;mcc_generated_files/ecan.c: 168:     BRGCON2 = 0xBE;
  1301  000208  0EBE               	movlw	190
  1302  00020A  6F44               	movwf	68,b	;volatile
  1303                           
  1304                           ;mcc_generated_files/ecan.c: 169:     BRGCON3 = 0x03;
  1305  00020C  0E03               	movlw	3
  1306  00020E  6F45               	movwf	69,b	;volatile
  1307  000210                     
  1308                           ; BSR set to: 14
  1309                           ;mcc_generated_files/ecan.c: 171:     ECAN_SetRXB0InterruptHandler(RXB0DefaultInterruptH
      +                          andler);
  1310  000210  0E78               	movlw	low _RXB0DefaultInterruptHandler
  1311  000212  6E4E               	movwf	ECAN_SetRXB0InterruptHandler@handler^0,c
  1312  000214  0E08               	movlw	high _RXB0DefaultInterruptHandler
  1313  000216  6E4F               	movwf	(ECAN_SetRXB0InterruptHandler@handler+1)^0,c
  1314  000218  EC22  F004         	call	_ECAN_SetRXB0InterruptHandler	;wreg free
  1315  00021C                     
  1316                           ;mcc_generated_files/ecan.c: 172:     PIR5bits.RXB0IF = 0;
  1317  00021C  9077               	bcf	119,0,c	;volatile
  1318  00021E                     
  1319                           ;mcc_generated_files/ecan.c: 173:     PIE5bits.RXB0IE = 1;
  1320  00021E  8076               	bsf	118,0,c	;volatile
  1321  000220                     
  1322                           ;mcc_generated_files/ecan.c: 175:     ECAN_SetRXB1InterruptHandler(RXB1DefaultInterruptH
      +                          andler);
  1323  000220  0E76               	movlw	low _RXB1DefaultInterruptHandler
  1324  000222  6E4E               	movwf	ECAN_SetRXB1InterruptHandler@handler^0,c
  1325  000224  0E08               	movlw	high _RXB1DefaultInterruptHandler
  1326  000226  6E4F               	movwf	(ECAN_SetRXB1InterruptHandler@handler+1)^0,c
  1327  000228  EC18  F004         	call	_ECAN_SetRXB1InterruptHandler	;wreg free
  1328  00022C                     
  1329                           ;mcc_generated_files/ecan.c: 176:     PIR5bits.RXB1IF = 0;
  1330  00022C  9277               	bcf	119,1,c	;volatile
  1331  00022E                     
  1332                           ;mcc_generated_files/ecan.c: 177:     PIE5bits.RXB1IE = 1;
  1333  00022E  8276               	bsf	118,1,c	;volatile
  1334  000230                     
  1335                           ;mcc_generated_files/ecan.c: 179:     ECAN_SetTXB0InterruptHandler(TXB0DefaultInterruptH
      +                          andler);
  1336  000230  0E74               	movlw	low _TXB0DefaultInterruptHandler
  1337  000232  6E4E               	movwf	ECAN_SetTXB0InterruptHandler@handler^0,c
  1338  000234  0E08               	movlw	high _TXB0DefaultInterruptHandler
  1339  000236  6E4F               	movwf	(ECAN_SetTXB0InterruptHandler@handler+1)^0,c
  1340  000238  EC04  F004         	call	_ECAN_SetTXB0InterruptHandler	;wreg free
  1341  00023C                     
  1342                           ;mcc_generated_files/ecan.c: 180:     PIR5bits.TXB0IF = 0;
  1343  00023C  9477               	bcf	119,2,c	;volatile
  1344  00023E                     
  1345                           ;mcc_generated_files/ecan.c: 181:     PIE5bits.TXB0IE = 1;
  1346  00023E  8476               	bsf	118,2,c	;volatile
  1347  000240                     
  1348                           ;mcc_generated_files/ecan.c: 183:     ECAN_SetTXB1InterruptHandler(TXB1DefaultInterruptH
      +                          andler);
  1349  000240  0E72               	movlw	low _TXB1DefaultInterruptHandler
  1350  000242  6E4E               	movwf	ECAN_SetTXB1InterruptHandler@handler^0,c
  1351  000244  0E08               	movlw	high _TXB1DefaultInterruptHandler
  1352  000246  6E4F               	movwf	(ECAN_SetTXB1InterruptHandler@handler+1)^0,c
  1353  000248  ECFF  F003         	call	_ECAN_SetTXB1InterruptHandler	;wreg free
  1354  00024C                     
  1355                           ;mcc_generated_files/ecan.c: 184:     PIR5bits.TXB1IF = 0;
  1356  00024C  9677               	bcf	119,3,c	;volatile
  1357  00024E                     
  1358                           ;mcc_generated_files/ecan.c: 185:     PIE5bits.TXB1IE = 1;
  1359  00024E  8676               	bsf	118,3,c	;volatile
  1360  000250                     
  1361                           ;mcc_generated_files/ecan.c: 187:     ECAN_SetTXB2InterruptHandler(TXB2DefaultInterruptH
      +                          andler);
  1362  000250  0E70               	movlw	low _TXB2DefaultInterruptHandler
  1363  000252  6E4E               	movwf	ECAN_SetTXB2InterruptHandler@handler^0,c
  1364  000254  0E08               	movlw	high _TXB2DefaultInterruptHandler
  1365  000256  6E4F               	movwf	(ECAN_SetTXB2InterruptHandler@handler+1)^0,c
  1366  000258  ECFA  F003         	call	_ECAN_SetTXB2InterruptHandler	;wreg free
  1367  00025C                     
  1368                           ;mcc_generated_files/ecan.c: 188:     PIR5bits.TXB2IF = 0;
  1369  00025C  9877               	bcf	119,4,c	;volatile
  1370  00025E                     
  1371                           ;mcc_generated_files/ecan.c: 189:     PIE5bits.TXB2IE = 1;
  1372  00025E  8876               	bsf	118,4,c	;volatile
  1373  000260                     
  1374                           ;mcc_generated_files/ecan.c: 191:     ECAN_SetRXB0OverflowHandler(RXB0OverflowDefaultHan
      +                          dler);
  1375  000260  0E86               	movlw	low _RXB0OverflowDefaultHandler
  1376  000262  6E4E               	movwf	ECAN_SetRXB0OverflowHandler@handler^0,c
  1377  000264  0E08               	movlw	high _RXB0OverflowDefaultHandler
  1378  000266  6E4F               	movwf	(ECAN_SetRXB0OverflowHandler@handler+1)^0,c
  1379  000268  EC1D  F004         	call	_ECAN_SetRXB0OverflowHandler	;wreg free
  1380  00026C                     
  1381                           ;mcc_generated_files/ecan.c: 192:     ECAN_SetRXB1OverflowHandler(RXB1OverflowDefaultHan
      +                          dler);
  1382  00026C  0E84               	movlw	low _RXB1OverflowDefaultHandler
  1383  00026E  6E4E               	movwf	ECAN_SetRXB1OverflowHandler@handler^0,c
  1384  000270  0E08               	movlw	high _RXB1OverflowDefaultHandler
  1385  000272  6E4F               	movwf	(ECAN_SetRXB1OverflowHandler@handler+1)^0,c
  1386  000274  EC13  F004         	call	_ECAN_SetRXB1OverflowHandler	;wreg free
  1387  000278                     
  1388                           ;mcc_generated_files/ecan.c: 193:     ECAN_SetBusOffHandler(BusOffDefaultHandler);
  1389  000278  0E88               	movlw	low _BusOffDefaultHandler
  1390  00027A  6E4E               	movwf	ECAN_SetBusOffHandler@handler^0,c
  1391  00027C  0E08               	movlw	high _BusOffDefaultHandler
  1392  00027E  6E4F               	movwf	(ECAN_SetBusOffHandler@handler+1)^0,c
  1393  000280  EC2C  F004         	call	_ECAN_SetBusOffHandler	;wreg free
  1394  000284                     
  1395                           ;mcc_generated_files/ecan.c: 194:     ECAN_SetTXPassiveHandler(TXPassiveDefaultHandler);
  1396  000284  0E7E               	movlw	low _TXPassiveDefaultHandler
  1397  000286  6E4E               	movwf	ECAN_SetTXPassiveHandler@handler^0,c
  1398  000288  0E08               	movlw	high _TXPassiveDefaultHandler
  1399  00028A  6E4F               	movwf	(ECAN_SetTXPassiveHandler@handler+1)^0,c
  1400  00028C  ECF5  F003         	call	_ECAN_SetTXPassiveHandler	;wreg free
  1401  000290                     
  1402                           ;mcc_generated_files/ecan.c: 195:     ECAN_SetRXPassiveHandler(RXPassiveDefaultHandler);
  1403  000290  0E82               	movlw	low _RXPassiveDefaultHandler
  1404  000292  6E4E               	movwf	ECAN_SetRXPassiveHandler@handler^0,c
  1405  000294  0E08               	movlw	high _RXPassiveDefaultHandler
  1406  000296  6E4F               	movwf	(ECAN_SetRXPassiveHandler@handler+1)^0,c
  1407  000298  EC0E  F004         	call	_ECAN_SetRXPassiveHandler	;wreg free
  1408  00029C                     
  1409                           ;mcc_generated_files/ecan.c: 196:     ECAN_SetTXWarningHandler(TXWarningDefaultHandler);
  1410  00029C  0E7C               	movlw	low _TXWarningDefaultHandler
  1411  00029E  6E4E               	movwf	ECAN_SetTXWarningHandler@handler^0,c
  1412  0002A0  0E08               	movlw	high _TXWarningDefaultHandler
  1413  0002A2  6E4F               	movwf	(ECAN_SetTXWarningHandler@handler+1)^0,c
  1414  0002A4  ECF0  F003         	call	_ECAN_SetTXWarningHandler	;wreg free
  1415  0002A8                     
  1416                           ;mcc_generated_files/ecan.c: 197:     ECAN_SetRXWarningHandler(RXWarningDefaultHandler);
  1417  0002A8  0E80               	movlw	low _RXWarningDefaultHandler
  1418  0002AA  6E4E               	movwf	ECAN_SetRXWarningHandler@handler^0,c
  1419  0002AC  0E08               	movlw	high _RXWarningDefaultHandler
  1420  0002AE  6E4F               	movwf	(ECAN_SetRXWarningHandler@handler+1)^0,c
  1421  0002B0  EC09  F004         	call	_ECAN_SetRXWarningHandler	;wreg free
  1422  0002B4                     
  1423                           ;mcc_generated_files/ecan.c: 198:     PIR5bits.ERRIF = 0;
  1424  0002B4  9A77               	bcf	119,5,c	;volatile
  1425  0002B6                     
  1426                           ;mcc_generated_files/ecan.c: 199:     PIE5bits.ERRIE = 1;
  1427  0002B6  8A76               	bsf	118,5,c	;volatile
  1428  0002B8                     
  1429                           ;mcc_generated_files/ecan.c: 201:     ECAN_SetWakeUpInterruptHandler(WakeUpDefaultInterr
      +                          uptHandler);
  1430  0002B8  0E6E               	movlw	low _WakeUpDefaultInterruptHandler
  1431  0002BA  6E4E               	movwf	ECAN_SetWakeUpInterruptHandler@handler^0,c
  1432  0002BC  0E08               	movlw	high _WakeUpDefaultInterruptHandler
  1433  0002BE  6E4F               	movwf	(ECAN_SetWakeUpInterruptHandler@handler+1)^0,c
  1434  0002C0  ECEB  F003         	call	_ECAN_SetWakeUpInterruptHandler	;wreg free
  1435  0002C4                     
  1436                           ;mcc_generated_files/ecan.c: 202:     PIR5bits.WAKIF = 0;
  1437  0002C4  9C77               	bcf	119,6,c	;volatile
  1438  0002C6                     
  1439                           ;mcc_generated_files/ecan.c: 203:     PIE5bits.WAKIE = 1;
  1440  0002C6  8C76               	bsf	118,6,c	;volatile
  1441  0002C8                     
  1442                           ;mcc_generated_files/ecan.c: 205:     ECAN_SetMessageErrorInterruptHandler(MessageErrorD
      +                          efaultInterruptHandler);
  1443  0002C8  0E7A               	movlw	low _MessageErrorDefaultInterruptHandler
  1444  0002CA  6E4E               	movwf	ECAN_SetMessageErrorInterruptHandler@handler^0,c
  1445  0002CC  0E08               	movlw	high _MessageErrorDefaultInterruptHandler
  1446  0002CE  6E4F               	movwf	(ECAN_SetMessageErrorInterruptHandler@handler+1)^0,c
  1447  0002D0  EC27  F004         	call	_ECAN_SetMessageErrorInterruptHandler	;wreg free
  1448  0002D4                     
  1449                           ;mcc_generated_files/ecan.c: 206:     PIR5bits.IRXIF = 0;
  1450  0002D4  9E77               	bcf	119,7,c	;volatile
  1451  0002D6                     
  1452                           ;mcc_generated_files/ecan.c: 207:     PIE5bits.IRXIE = 1;
  1453  0002D6  8E76               	bsf	118,7,c	;volatile
  1454                           
  1455                           ;mcc_generated_files/ecan.c: 209:     CANCON = 0x00;
  1456  0002D8  0E00               	movlw	0
  1457  0002DA  6E6F               	movwf	111,c	;volatile
  1458  0002DC                     l2175:
  1459  0002DC  CF6E F050          	movff	3950,??_ECAN_Initialize	;volatile
  1460  0002E0  0EE0               	movlw	224
  1461  0002E2  1650               	andwf	??_ECAN_Initialize^0,f,c
  1462  0002E4  A4D8               	btfss	status,2,c
  1463  0002E6  EF77  F001         	goto	u801
  1464  0002EA  EF79  F001         	goto	u800
  1465  0002EE                     u801:
  1466  0002EE  EF6E  F001         	goto	l2175
  1467  0002F2                     u800:
  1468  0002F2  0012               	return		;funcret
  1469  0002F4                     __end_of_ECAN_Initialize:
  1470                           	opt callstack 0
  1471                           
  1472 ;; *************** function _ECAN_SetWakeUpInterruptHandler *****************
  1473 ;; Defined at:
  1474 ;;		line 631 in file "mcc_generated_files/ecan.c"
  1475 ;; Parameters:    Size  Location     Type
  1476 ;;  handler         2    8[COMRAM] PTR FTN()void 
  1477 ;;		 -> WakeUpDefaultInterruptHandler(1), 
  1478 ;; Auto vars:     Size  Location     Type
  1479 ;;		None
  1480 ;; Return value:  Size  Location     Type
  1481 ;;                  1    wreg      void 
  1482 ;; Registers used:
  1483 ;;		wreg, status,2, status,0
  1484 ;; Tracked objects:
  1485 ;;		On entry : 0/0
  1486 ;;		On exit  : 0/0
  1487 ;;		Unchanged: 0/0
  1488 ;; Data sizes:     COMRAM   BANK0   BANK1   BANK2   BANK3   BANK4   BANK5   BANK6   BANK7   BANK8   BANK9  BANK10  BANK1
      +1  BANK12  BANK13  BANK14
  1489 ;;      Params:         2       0       0       0       0       0       0       0       0       0       0       0       
      +0       0       0       0
  1490 ;;      Locals:         0       0       0       0       0       0       0       0       0       0       0       0       
      +0       0       0       0
  1491 ;;      Temps:          0       0       0       0       0       0       0       0       0       0       0       0       
      +0       0       0       0
  1492 ;;      Totals:         2       0       0       0       0       0       0       0       0       0       0       0       
      +0       0       0       0
  1493 ;;Total ram usage:        2 bytes
  1494 ;; Hardware stack levels used:    1
  1495 ;; Hardware stack levels required when called:    7
  1496 ;; This function calls:
  1497 ;;		Nothing
  1498 ;; This function is called by:
  1499 ;;		_ECAN_Initialize
  1500 ;; This function uses a non-reentrant model
  1501 ;;
  1502                           
  1503                           	psect	text12
  1504  0007D6                     __ptext12:
  1505                           	opt callstack 0
  1506  0007D6                     _ECAN_SetWakeUpInterruptHandler:
  1507                           	opt callstack 21
  1508  0007D6                     
  1509                           ;mcc_generated_files/ecan.c: 631: void ECAN_SetWakeUpInterruptHandler(void (*handler)(vo
      +                          id));mcc_generated_files/ecan.c: 632: {;mcc_generated_files/ecan.c: 633:     WakeUpInter
      +                          ruptHandler = handler;
  1510  0007D6  C04E  F01B         	movff	ECAN_SetWakeUpInterruptHandler@handler,_WakeUpInterruptHandler
  1511  0007DA  C04F  F01C         	movff	ECAN_SetWakeUpInterruptHandler@handler+1,_WakeUpInterruptHandler+1
  1512  0007DE  0012               	return		;funcret
  1513  0007E0                     __end_of_ECAN_SetWakeUpInterruptHandler:
  1514                           	opt callstack 0
  1515                           
  1516 ;; *************** function _ECAN_SetTXWarningHandler *****************
  1517 ;; Defined at:
  1518 ;;		line 579 in file "mcc_generated_files/ecan.c"
  1519 ;; Parameters:    Size  Location     Type
  1520 ;;  handler         2    8[COMRAM] PTR FTN()void 
  1521 ;;		 -> TXWarningDefaultHandler(1), 
  1522 ;; Auto vars:     Size  Location     Type
  1523 ;;		None
  1524 ;; Return value:  Size  Location     Type
  1525 ;;                  1    wreg      void 
  1526 ;; Registers used:
  1527 ;;		wreg, status,2, status,0
  1528 ;; Tracked objects:
  1529 ;;		On entry : 0/0
  1530 ;;		On exit  : 0/0
  1531 ;;		Unchanged: 0/0
  1532 ;; Data sizes:     COMRAM   BANK0   BANK1   BANK2   BANK3   BANK4   BANK5   BANK6   BANK7   BANK8   BANK9  BANK10  BANK1
      +1  BANK12  BANK13  BANK14
  1533 ;;      Params:         2       0       0       0       0       0       0       0       0       0       0       0       
      +0       0       0       0
  1534 ;;      Locals:         0       0       0       0       0       0       0       0       0       0       0       0       
      +0       0       0       0
  1535 ;;      Temps:          0       0       0       0       0       0       0       0       0       0       0       0       
      +0       0       0       0
  1536 ;;      Totals:         2       0       0       0       0       0       0       0       0       0       0       0       
      +0       0       0       0
  1537 ;;Total ram usage:        2 bytes
  1538 ;; Hardware stack levels used:    1
  1539 ;; Hardware stack levels required when called:    7
  1540 ;; This function calls:
  1541 ;;		Nothing
  1542 ;; This function is called by:
  1543 ;;		_ECAN_Initialize
  1544 ;; This function uses a non-reentrant model
  1545 ;;
  1546                           
  1547                           	psect	text13
  1548  0007E0                     __ptext13:
  1549                           	opt callstack 0
  1550  0007E0                     _ECAN_SetTXWarningHandler:
  1551                           	opt callstack 21
  1552  0007E0                     
  1553                           ;mcc_generated_files/ecan.c: 579: void ECAN_SetTXWarningHandler(void (*handler)(void));m
      +                          cc_generated_files/ecan.c: 580: {;mcc_generated_files/ecan.c: 581:     TXWarningHandler 
      +                          = handler;
  1554  0007E0  C04E  F01F         	movff	ECAN_SetTXWarningHandler@handler,_TXWarningHandler
  1555  0007E4  C04F  F020         	movff	ECAN_SetTXWarningHandler@handler+1,_TXWarningHandler+1
  1556  0007E8  0012               	return		;funcret
  1557  0007EA                     __end_of_ECAN_SetTXWarningHandler:
  1558                           	opt callstack 0
  1559                           
  1560 ;; *************** function _ECAN_SetTXPassiveHandler *****************
  1561 ;; Defined at:
  1562 ;;		line 569 in file "mcc_generated_files/ecan.c"
  1563 ;; Parameters:    Size  Location     Type
  1564 ;;  handler         2    8[COMRAM] PTR FTN()void 
  1565 ;;		 -> TXPassiveDefaultHandler(1), 
  1566 ;; Auto vars:     Size  Location     Type
  1567 ;;		None
  1568 ;; Return value:  Size  Location     Type
  1569 ;;                  1    wreg      void 
  1570 ;; Registers used:
  1571 ;;		wreg, status,2, status,0
  1572 ;; Tracked objects:
  1573 ;;		On entry : 0/0
  1574 ;;		On exit  : 0/0
  1575 ;;		Unchanged: 0/0
  1576 ;; Data sizes:     COMRAM   BANK0   BANK1   BANK2   BANK3   BANK4   BANK5   BANK6   BANK7   BANK8   BANK9  BANK10  BANK1
      +1  BANK12  BANK13  BANK14
  1577 ;;      Params:         2       0       0       0       0       0       0       0       0       0       0       0       
      +0       0       0       0
  1578 ;;      Locals:         0       0       0       0       0       0       0       0       0       0       0       0       
      +0       0       0       0
  1579 ;;      Temps:          0       0       0       0       0       0       0       0       0       0       0       0       
      +0       0       0       0
  1580 ;;      Totals:         2       0       0       0       0       0       0       0       0       0       0       0       
      +0       0       0       0
  1581 ;;Total ram usage:        2 bytes
  1582 ;; Hardware stack levels used:    1
  1583 ;; Hardware stack levels required when called:    7
  1584 ;; This function calls:
  1585 ;;		Nothing
  1586 ;; This function is called by:
  1587 ;;		_ECAN_Initialize
  1588 ;; This function uses a non-reentrant model
  1589 ;;
  1590                           
  1591                           	psect	text14
  1592  0007EA                     __ptext14:
  1593                           	opt callstack 0
  1594  0007EA                     _ECAN_SetTXPassiveHandler:
  1595                           	opt callstack 21
  1596  0007EA                     
  1597                           ;mcc_generated_files/ecan.c: 569: void ECAN_SetTXPassiveHandler(void (*handler)(void));m
      +                          cc_generated_files/ecan.c: 570: {;mcc_generated_files/ecan.c: 571:     TXPassiveHandler 
      +                          = handler;
  1598  0007EA  C04E  F023         	movff	ECAN_SetTXPassiveHandler@handler,_TXPassiveHandler
  1599  0007EE  C04F  F024         	movff	ECAN_SetTXPassiveHandler@handler+1,_TXPassiveHandler+1
  1600  0007F2  0012               	return		;funcret
  1601  0007F4                     __end_of_ECAN_SetTXPassiveHandler:
  1602                           	opt callstack 0
  1603                           
  1604 ;; *************** function _ECAN_SetTXB2InterruptHandler *****************
  1605 ;; Defined at:
  1606 ;;		line 543 in file "mcc_generated_files/ecan.c"
  1607 ;; Parameters:    Size  Location     Type
  1608 ;;  handler         2    8[COMRAM] PTR FTN()void 
  1609 ;;		 -> TXB2DefaultInterruptHandler(1), 
  1610 ;; Auto vars:     Size  Location     Type
  1611 ;;		None
  1612 ;; Return value:  Size  Location     Type
  1613 ;;                  1    wreg      void 
  1614 ;; Registers used:
  1615 ;;		wreg, status,2, status,0
  1616 ;; Tracked objects:
  1617 ;;		On entry : 0/0
  1618 ;;		On exit  : 0/0
  1619 ;;		Unchanged: 0/0
  1620 ;; Data sizes:     COMRAM   BANK0   BANK1   BANK2   BANK3   BANK4   BANK5   BANK6   BANK7   BANK8   BANK9  BANK10  BANK1
      +1  BANK12  BANK13  BANK14
  1621 ;;      Params:         2       0       0       0       0       0       0       0       0       0       0       0       
      +0       0       0       0
  1622 ;;      Locals:         0       0       0       0       0       0       0       0       0       0       0       0       
      +0       0       0       0
  1623 ;;      Temps:          0       0       0       0       0       0       0       0       0       0       0       0       
      +0       0       0       0
  1624 ;;      Totals:         2       0       0       0       0       0       0       0       0       0       0       0       
      +0       0       0       0
  1625 ;;Total ram usage:        2 bytes
  1626 ;; Hardware stack levels used:    1
  1627 ;; Hardware stack levels required when called:    7
  1628 ;; This function calls:
  1629 ;;		Nothing
  1630 ;; This function is called by:
  1631 ;;		_ECAN_Initialize
  1632 ;; This function uses a non-reentrant model
  1633 ;;
  1634                           
  1635                           	psect	text15
  1636  0007F4                     __ptext15:
  1637                           	opt callstack 0
  1638  0007F4                     _ECAN_SetTXB2InterruptHandler:
  1639                           	opt callstack 21
  1640  0007F4                     
  1641                           ;mcc_generated_files/ecan.c: 543: void ECAN_SetTXB2InterruptHandler(void (*handler)(void
      +                          ));mcc_generated_files/ecan.c: 544: {;mcc_generated_files/ecan.c: 545:     TXB2Interrupt
      +                          Handler = handler;
  1642  0007F4  C04E  F02B         	movff	ECAN_SetTXB2InterruptHandler@handler,_TXB2InterruptHandler
  1643  0007F8  C04F  F02C         	movff	ECAN_SetTXB2InterruptHandler@handler+1,_TXB2InterruptHandler+1
  1644  0007FC  0012               	return		;funcret
  1645  0007FE                     __end_of_ECAN_SetTXB2InterruptHandler:
  1646                           	opt callstack 0
  1647                           
  1648 ;; *************** function _ECAN_SetTXB1InterruptHandler *****************
  1649 ;; Defined at:
  1650 ;;		line 532 in file "mcc_generated_files/ecan.c"
  1651 ;; Parameters:    Size  Location     Type
  1652 ;;  handler         2    8[COMRAM] PTR FTN()void 
  1653 ;;		 -> TXB1DefaultInterruptHandler(1), 
  1654 ;; Auto vars:     Size  Location     Type
  1655 ;;		None
  1656 ;; Return value:  Size  Location     Type
  1657 ;;                  1    wreg      void 
  1658 ;; Registers used:
  1659 ;;		wreg, status,2, status,0
  1660 ;; Tracked objects:
  1661 ;;		On entry : 0/0
  1662 ;;		On exit  : 0/0
  1663 ;;		Unchanged: 0/0
  1664 ;; Data sizes:     COMRAM   BANK0   BANK1   BANK2   BANK3   BANK4   BANK5   BANK6   BANK7   BANK8   BANK9  BANK10  BANK1
      +1  BANK12  BANK13  BANK14
  1665 ;;      Params:         2       0       0       0       0       0       0       0       0       0       0       0       
      +0       0       0       0
  1666 ;;      Locals:         0       0       0       0       0       0       0       0       0       0       0       0       
      +0       0       0       0
  1667 ;;      Temps:          0       0       0       0       0       0       0       0       0       0       0       0       
      +0       0       0       0
  1668 ;;      Totals:         2       0       0       0       0       0       0       0       0       0       0       0       
      +0       0       0       0
  1669 ;;Total ram usage:        2 bytes
  1670 ;; Hardware stack levels used:    1
  1671 ;; Hardware stack levels required when called:    7
  1672 ;; This function calls:
  1673 ;;		Nothing
  1674 ;; This function is called by:
  1675 ;;		_ECAN_Initialize
  1676 ;; This function uses a non-reentrant model
  1677 ;;
  1678                           
  1679                           	psect	text16
  1680  0007FE                     __ptext16:
  1681                           	opt callstack 0
  1682  0007FE                     _ECAN_SetTXB1InterruptHandler:
  1683                           	opt callstack 21
  1684  0007FE                     
  1685                           ;mcc_generated_files/ecan.c: 532: void ECAN_SetTXB1InterruptHandler(void (*handler)(void
      +                          ));mcc_generated_files/ecan.c: 533: {;mcc_generated_files/ecan.c: 534:     TXB1Interrupt
      +                          Handler = handler;
  1686  0007FE  C04E  F02D         	movff	ECAN_SetTXB1InterruptHandler@handler,_TXB1InterruptHandler
  1687  000802  C04F  F02E         	movff	ECAN_SetTXB1InterruptHandler@handler+1,_TXB1InterruptHandler+1
  1688  000806  0012               	return		;funcret
  1689  000808                     __end_of_ECAN_SetTXB1InterruptHandler:
  1690                           	opt callstack 0
  1691                           
  1692 ;; *************** function _ECAN_SetTXB0InterruptHandler *****************
  1693 ;; Defined at:
  1694 ;;		line 521 in file "mcc_generated_files/ecan.c"
  1695 ;; Parameters:    Size  Location     Type
  1696 ;;  handler         2    8[COMRAM] PTR FTN()void 
  1697 ;;		 -> TXB0DefaultInterruptHandler(1), 
  1698 ;; Auto vars:     Size  Location     Type
  1699 ;;		None
  1700 ;; Return value:  Size  Location     Type
  1701 ;;                  1    wreg      void 
  1702 ;; Registers used:
  1703 ;;		wreg, status,2, status,0
  1704 ;; Tracked objects:
  1705 ;;		On entry : 0/0
  1706 ;;		On exit  : 0/0
  1707 ;;		Unchanged: 0/0
  1708 ;; Data sizes:     COMRAM   BANK0   BANK1   BANK2   BANK3   BANK4   BANK5   BANK6   BANK7   BANK8   BANK9  BANK10  BANK1
      +1  BANK12  BANK13  BANK14
  1709 ;;      Params:         2       0       0       0       0       0       0       0       0       0       0       0       
      +0       0       0       0
  1710 ;;      Locals:         0       0       0       0       0       0       0       0       0       0       0       0       
      +0       0       0       0
  1711 ;;      Temps:          0       0       0       0       0       0       0       0       0       0       0       0       
      +0       0       0       0
  1712 ;;      Totals:         2       0       0       0       0       0       0       0       0       0       0       0       
      +0       0       0       0
  1713 ;;Total ram usage:        2 bytes
  1714 ;; Hardware stack levels used:    1
  1715 ;; Hardware stack levels required when called:    7
  1716 ;; This function calls:
  1717 ;;		Nothing
  1718 ;; This function is called by:
  1719 ;;		_ECAN_Initialize
  1720 ;; This function uses a non-reentrant model
  1721 ;;
  1722                           
  1723                           	psect	text17
  1724  000808                     __ptext17:
  1725                           	opt callstack 0
  1726  000808                     _ECAN_SetTXB0InterruptHandler:
  1727                           	opt callstack 21
  1728  000808                     
  1729                           ;mcc_generated_files/ecan.c: 521: void ECAN_SetTXB0InterruptHandler(void (*handler)(void
      +                          ));mcc_generated_files/ecan.c: 522: {;mcc_generated_files/ecan.c: 523:     TXB0Interrupt
      +                          Handler = handler;
  1730  000808  C04E  F02F         	movff	ECAN_SetTXB0InterruptHandler@handler,_TXB0InterruptHandler
  1731  00080C  C04F  F030         	movff	ECAN_SetTXB0InterruptHandler@handler+1,_TXB0InterruptHandler+1
  1732  000810  0012               	return		;funcret
  1733  000812                     __end_of_ECAN_SetTXB0InterruptHandler:
  1734                           	opt callstack 0
  1735                           
  1736 ;; *************** function _ECAN_SetRXWarningHandler *****************
  1737 ;; Defined at:
  1738 ;;		line 584 in file "mcc_generated_files/ecan.c"
  1739 ;; Parameters:    Size  Location     Type
  1740 ;;  handler         2    8[COMRAM] PTR FTN()void 
  1741 ;;		 -> RXWarningDefaultHandler(1), 
  1742 ;; Auto vars:     Size  Location     Type
  1743 ;;		None
  1744 ;; Return value:  Size  Location     Type
  1745 ;;                  1    wreg      void 
  1746 ;; Registers used:
  1747 ;;		wreg, status,2, status,0
  1748 ;; Tracked objects:
  1749 ;;		On entry : 0/0
  1750 ;;		On exit  : 0/0
  1751 ;;		Unchanged: 0/0
  1752 ;; Data sizes:     COMRAM   BANK0   BANK1   BANK2   BANK3   BANK4   BANK5   BANK6   BANK7   BANK8   BANK9  BANK10  BANK1
      +1  BANK12  BANK13  BANK14
  1753 ;;      Params:         2       0       0       0       0       0       0       0       0       0       0       0       
      +0       0       0       0
  1754 ;;      Locals:         0       0       0       0       0       0       0       0       0       0       0       0       
      +0       0       0       0
  1755 ;;      Temps:          0       0       0       0       0       0       0       0       0       0       0       0       
      +0       0       0       0
  1756 ;;      Totals:         2       0       0       0       0       0       0       0       0       0       0       0       
      +0       0       0       0
  1757 ;;Total ram usage:        2 bytes
  1758 ;; Hardware stack levels used:    1
  1759 ;; Hardware stack levels required when called:    7
  1760 ;; This function calls:
  1761 ;;		Nothing
  1762 ;; This function is called by:
  1763 ;;		_ECAN_Initialize
  1764 ;; This function uses a non-reentrant model
  1765 ;;
  1766                           
  1767                           	psect	text18
  1768  000812                     __ptext18:
  1769                           	opt callstack 0
  1770  000812                     _ECAN_SetRXWarningHandler:
  1771                           	opt callstack 21
  1772  000812                     
  1773                           ;mcc_generated_files/ecan.c: 584: void ECAN_SetRXWarningHandler(void (*handler)(void));m
      +                          cc_generated_files/ecan.c: 585: {;mcc_generated_files/ecan.c: 586:     RXWarningHandler 
      +                          = handler;
  1774  000812  C04E  F01D         	movff	ECAN_SetRXWarningHandler@handler,_RXWarningHandler
  1775  000816  C04F  F01E         	movff	ECAN_SetRXWarningHandler@handler+1,_RXWarningHandler+1
  1776  00081A  0012               	return		;funcret
  1777  00081C                     __end_of_ECAN_SetRXWarningHandler:
  1778                           	opt callstack 0
  1779                           
  1780 ;; *************** function _ECAN_SetRXPassiveHandler *****************
  1781 ;; Defined at:
  1782 ;;		line 574 in file "mcc_generated_files/ecan.c"
  1783 ;; Parameters:    Size  Location     Type
  1784 ;;  handler         2    8[COMRAM] PTR FTN()void 
  1785 ;;		 -> RXPassiveDefaultHandler(1), 
  1786 ;; Auto vars:     Size  Location     Type
  1787 ;;		None
  1788 ;; Return value:  Size  Location     Type
  1789 ;;                  1    wreg      void 
  1790 ;; Registers used:
  1791 ;;		wreg, status,2, status,0
  1792 ;; Tracked objects:
  1793 ;;		On entry : 0/0
  1794 ;;		On exit  : 0/0
  1795 ;;		Unchanged: 0/0
  1796 ;; Data sizes:     COMRAM   BANK0   BANK1   BANK2   BANK3   BANK4   BANK5   BANK6   BANK7   BANK8   BANK9  BANK10  BANK1
      +1  BANK12  BANK13  BANK14
  1797 ;;      Params:         2       0       0       0       0       0       0       0       0       0       0       0       
      +0       0       0       0
  1798 ;;      Locals:         0       0       0       0       0       0       0       0       0       0       0       0       
      +0       0       0       0
  1799 ;;      Temps:          0       0       0       0       0       0       0       0       0       0       0       0       
      +0       0       0       0
  1800 ;;      Totals:         2       0       0       0       0       0       0       0       0       0       0       0       
      +0       0       0       0
  1801 ;;Total ram usage:        2 bytes
  1802 ;; Hardware stack levels used:    1
  1803 ;; Hardware stack levels required when called:    7
  1804 ;; This function calls:
  1805 ;;		Nothing
  1806 ;; This function is called by:
  1807 ;;		_ECAN_Initialize
  1808 ;; This function uses a non-reentrant model
  1809 ;;
  1810                           
  1811                           	psect	text19
  1812  00081C                     __ptext19:
  1813                           	opt callstack 0
  1814  00081C                     _ECAN_SetRXPassiveHandler:
  1815                           	opt callstack 21
  1816  00081C                     
  1817                           ;mcc_generated_files/ecan.c: 574: void ECAN_SetRXPassiveHandler(void (*handler)(void));m
      +                          cc_generated_files/ecan.c: 575: {;mcc_generated_files/ecan.c: 576:     RXPassiveHandler 
      +                          = handler;
  1818  00081C  C04E  F021         	movff	ECAN_SetRXPassiveHandler@handler,_RXPassiveHandler
  1819  000820  C04F  F022         	movff	ECAN_SetRXPassiveHandler@handler+1,_RXPassiveHandler+1
  1820  000824  0012               	return		;funcret
  1821  000826                     __end_of_ECAN_SetRXPassiveHandler:
  1822                           	opt callstack 0
  1823                           
  1824 ;; *************** function _ECAN_SetRXB1OverflowHandler *****************
  1825 ;; Defined at:
  1826 ;;		line 559 in file "mcc_generated_files/ecan.c"
  1827 ;; Parameters:    Size  Location     Type
  1828 ;;  handler         2    8[COMRAM] PTR FTN()void 
  1829 ;;		 -> RXB1OverflowDefaultHandler(1), 
  1830 ;; Auto vars:     Size  Location     Type
  1831 ;;		None
  1832 ;; Return value:  Size  Location     Type
  1833 ;;                  1    wreg      void 
  1834 ;; Registers used:
  1835 ;;		wreg, status,2, status,0
  1836 ;; Tracked objects:
  1837 ;;		On entry : 0/0
  1838 ;;		On exit  : 0/0
  1839 ;;		Unchanged: 0/0
  1840 ;; Data sizes:     COMRAM   BANK0   BANK1   BANK2   BANK3   BANK4   BANK5   BANK6   BANK7   BANK8   BANK9  BANK10  BANK1
      +1  BANK12  BANK13  BANK14
  1841 ;;      Params:         2       0       0       0       0       0       0       0       0       0       0       0       
      +0       0       0       0
  1842 ;;      Locals:         0       0       0       0       0       0       0       0       0       0       0       0       
      +0       0       0       0
  1843 ;;      Temps:          0       0       0       0       0       0       0       0       0       0       0       0       
      +0       0       0       0
  1844 ;;      Totals:         2       0       0       0       0       0       0       0       0       0       0       0       
      +0       0       0       0
  1845 ;;Total ram usage:        2 bytes
  1846 ;; Hardware stack levels used:    1
  1847 ;; Hardware stack levels required when called:    7
  1848 ;; This function calls:
  1849 ;;		Nothing
  1850 ;; This function is called by:
  1851 ;;		_ECAN_Initialize
  1852 ;; This function uses a non-reentrant model
  1853 ;;
  1854                           
  1855                           	psect	text20
  1856  000826                     __ptext20:
  1857                           	opt callstack 0
  1858  000826                     _ECAN_SetRXB1OverflowHandler:
  1859                           	opt callstack 21
  1860  000826                     
  1861                           ;mcc_generated_files/ecan.c: 559: void ECAN_SetRXB1OverflowHandler(void (*handler)(void)
      +                          );mcc_generated_files/ecan.c: 560: {;mcc_generated_files/ecan.c: 561:     RXB1OverflowHa
      +                          ndler = handler;
  1862  000826  C04E  F027         	movff	ECAN_SetRXB1OverflowHandler@handler,_RXB1OverflowHandler
  1863  00082A  C04F  F028         	movff	ECAN_SetRXB1OverflowHandler@handler+1,_RXB1OverflowHandler+1
  1864  00082E  0012               	return		;funcret
  1865  000830                     __end_of_ECAN_SetRXB1OverflowHandler:
  1866                           	opt callstack 0
  1867                           
  1868 ;; *************** function _ECAN_SetRXB1InterruptHandler *****************
  1869 ;; Defined at:
  1870 ;;		line 510 in file "mcc_generated_files/ecan.c"
  1871 ;; Parameters:    Size  Location     Type
  1872 ;;  handler         2    8[COMRAM] PTR FTN()void 
  1873 ;;		 -> RXB1DefaultInterruptHandler(1), 
  1874 ;; Auto vars:     Size  Location     Type
  1875 ;;		None
  1876 ;; Return value:  Size  Location     Type
  1877 ;;                  1    wreg      void 
  1878 ;; Registers used:
  1879 ;;		wreg, status,2, status,0
  1880 ;; Tracked objects:
  1881 ;;		On entry : 0/0
  1882 ;;		On exit  : 0/0
  1883 ;;		Unchanged: 0/0
  1884 ;; Data sizes:     COMRAM   BANK0   BANK1   BANK2   BANK3   BANK4   BANK5   BANK6   BANK7   BANK8   BANK9  BANK10  BANK1
      +1  BANK12  BANK13  BANK14
  1885 ;;      Params:         2       0       0       0       0       0       0       0       0       0       0       0       
      +0       0       0       0
  1886 ;;      Locals:         0       0       0       0       0       0       0       0       0       0       0       0       
      +0       0       0       0
  1887 ;;      Temps:          0       0       0       0       0       0       0       0       0       0       0       0       
      +0       0       0       0
  1888 ;;      Totals:         2       0       0       0       0       0       0       0       0       0       0       0       
      +0       0       0       0
  1889 ;;Total ram usage:        2 bytes
  1890 ;; Hardware stack levels used:    1
  1891 ;; Hardware stack levels required when called:    7
  1892 ;; This function calls:
  1893 ;;		Nothing
  1894 ;; This function is called by:
  1895 ;;		_ECAN_Initialize
  1896 ;; This function uses a non-reentrant model
  1897 ;;
  1898                           
  1899                           	psect	text21
  1900  000830                     __ptext21:
  1901                           	opt callstack 0
  1902  000830                     _ECAN_SetRXB1InterruptHandler:
  1903                           	opt callstack 21
  1904  000830                     
  1905                           ;mcc_generated_files/ecan.c: 510: void ECAN_SetRXB1InterruptHandler(void (*handler)(void
      +                          ));mcc_generated_files/ecan.c: 511: {;mcc_generated_files/ecan.c: 512:     RXB1Interrupt
      +                          Handler = handler;
  1906  000830  C04E  F031         	movff	ECAN_SetRXB1InterruptHandler@handler,_RXB1InterruptHandler
  1907  000834  C04F  F032         	movff	ECAN_SetRXB1InterruptHandler@handler+1,_RXB1InterruptHandler+1
  1908  000838  0012               	return		;funcret
  1909  00083A                     __end_of_ECAN_SetRXB1InterruptHandler:
  1910                           	opt callstack 0
  1911                           
  1912 ;; *************** function _ECAN_SetRXB0OverflowHandler *****************
  1913 ;; Defined at:
  1914 ;;		line 554 in file "mcc_generated_files/ecan.c"
  1915 ;; Parameters:    Size  Location     Type
  1916 ;;  handler         2    8[COMRAM] PTR FTN()void 
  1917 ;;		 -> RXB0OverflowDefaultHandler(1), 
  1918 ;; Auto vars:     Size  Location     Type
  1919 ;;		None
  1920 ;; Return value:  Size  Location     Type
  1921 ;;                  1    wreg      void 
  1922 ;; Registers used:
  1923 ;;		wreg, status,2, status,0
  1924 ;; Tracked objects:
  1925 ;;		On entry : 0/0
  1926 ;;		On exit  : 0/0
  1927 ;;		Unchanged: 0/0
  1928 ;; Data sizes:     COMRAM   BANK0   BANK1   BANK2   BANK3   BANK4   BANK5   BANK6   BANK7   BANK8   BANK9  BANK10  BANK1
      +1  BANK12  BANK13  BANK14
  1929 ;;      Params:         2       0       0       0       0       0       0       0       0       0       0       0       
      +0       0       0       0
  1930 ;;      Locals:         0       0       0       0       0       0       0       0       0       0       0       0       
      +0       0       0       0
  1931 ;;      Temps:          0       0       0       0       0       0       0       0       0       0       0       0       
      +0       0       0       0
  1932 ;;      Totals:         2       0       0       0       0       0       0       0       0       0       0       0       
      +0       0       0       0
  1933 ;;Total ram usage:        2 bytes
  1934 ;; Hardware stack levels used:    1
  1935 ;; Hardware stack levels required when called:    7
  1936 ;; This function calls:
  1937 ;;		Nothing
  1938 ;; This function is called by:
  1939 ;;		_ECAN_Initialize
  1940 ;; This function uses a non-reentrant model
  1941 ;;
  1942                           
  1943                           	psect	text22
  1944  00083A                     __ptext22:
  1945                           	opt callstack 0
  1946  00083A                     _ECAN_SetRXB0OverflowHandler:
  1947                           	opt callstack 21
  1948  00083A                     
  1949                           ;mcc_generated_files/ecan.c: 554: void ECAN_SetRXB0OverflowHandler(void (*handler)(void)
      +                          );mcc_generated_files/ecan.c: 555: {;mcc_generated_files/ecan.c: 556:     RXB0OverflowHa
      +                          ndler = handler;
  1950  00083A  C04E  F029         	movff	ECAN_SetRXB0OverflowHandler@handler,_RXB0OverflowHandler
  1951  00083E  C04F  F02A         	movff	ECAN_SetRXB0OverflowHandler@handler+1,_RXB0OverflowHandler+1
  1952  000842  0012               	return		;funcret
  1953  000844                     __end_of_ECAN_SetRXB0OverflowHandler:
  1954                           	opt callstack 0
  1955                           
  1956 ;; *************** function _ECAN_SetRXB0InterruptHandler *****************
  1957 ;; Defined at:
  1958 ;;		line 499 in file "mcc_generated_files/ecan.c"
  1959 ;; Parameters:    Size  Location     Type
  1960 ;;  handler         2    8[COMRAM] PTR FTN()void 
  1961 ;;		 -> RXB0DefaultInterruptHandler(1), 
  1962 ;; Auto vars:     Size  Location     Type
  1963 ;;		None
  1964 ;; Return value:  Size  Location     Type
  1965 ;;                  1    wreg      void 
  1966 ;; Registers used:
  1967 ;;		wreg, status,2, status,0
  1968 ;; Tracked objects:
  1969 ;;		On entry : 0/0
  1970 ;;		On exit  : 0/0
  1971 ;;		Unchanged: 0/0
  1972 ;; Data sizes:     COMRAM   BANK0   BANK1   BANK2   BANK3   BANK4   BANK5   BANK6   BANK7   BANK8   BANK9  BANK10  BANK1
      +1  BANK12  BANK13  BANK14
  1973 ;;      Params:         2       0       0       0       0       0       0       0       0       0       0       0       
      +0       0       0       0
  1974 ;;      Locals:         0       0       0       0       0       0       0       0       0       0       0       0       
      +0       0       0       0
  1975 ;;      Temps:          0       0       0       0       0       0       0       0       0       0       0       0       
      +0       0       0       0
  1976 ;;      Totals:         2       0       0       0       0       0       0       0       0       0       0       0       
      +0       0       0       0
  1977 ;;Total ram usage:        2 bytes
  1978 ;; Hardware stack levels used:    1
  1979 ;; Hardware stack levels required when called:    7
  1980 ;; This function calls:
  1981 ;;		Nothing
  1982 ;; This function is called by:
  1983 ;;		_ECAN_Initialize
  1984 ;; This function uses a non-reentrant model
  1985 ;;
  1986                           
  1987                           	psect	text23
  1988  000844                     __ptext23:
  1989                           	opt callstack 0
  1990  000844                     _ECAN_SetRXB0InterruptHandler:
  1991                           	opt callstack 21
  1992  000844                     
  1993                           ;mcc_generated_files/ecan.c: 499: void ECAN_SetRXB0InterruptHandler(void (*handler)(void
      +                          ));mcc_generated_files/ecan.c: 500: {;mcc_generated_files/ecan.c: 501:     RXB0Interrupt
      +                          Handler = handler;
  1994  000844  C04E  F033         	movff	ECAN_SetRXB0InterruptHandler@handler,_RXB0InterruptHandler
  1995  000848  C04F  F034         	movff	ECAN_SetRXB0InterruptHandler@handler+1,_RXB0InterruptHandler+1
  1996  00084C  0012               	return		;funcret
  1997  00084E                     __end_of_ECAN_SetRXB0InterruptHandler:
  1998                           	opt callstack 0
  1999                           
  2000 ;; *************** function _ECAN_SetMessageErrorInterruptHandler *****************
  2001 ;; Defined at:
  2002 ;;		line 642 in file "mcc_generated_files/ecan.c"
  2003 ;; Parameters:    Size  Location     Type
  2004 ;;  handler         2    8[COMRAM] PTR FTN()void 
  2005 ;;		 -> MessageErrorDefaultInterruptHandler(1), 
  2006 ;; Auto vars:     Size  Location     Type
  2007 ;;		None
  2008 ;; Return value:  Size  Location     Type
  2009 ;;                  1    wreg      void 
  2010 ;; Registers used:
  2011 ;;		wreg, status,2, status,0
  2012 ;; Tracked objects:
  2013 ;;		On entry : 0/0
  2014 ;;		On exit  : 0/0
  2015 ;;		Unchanged: 0/0
  2016 ;; Data sizes:     COMRAM   BANK0   BANK1   BANK2   BANK3   BANK4   BANK5   BANK6   BANK7   BANK8   BANK9  BANK10  BANK1
      +1  BANK12  BANK13  BANK14
  2017 ;;      Params:         2       0       0       0       0       0       0       0       0       0       0       0       
      +0       0       0       0
  2018 ;;      Locals:         0       0       0       0       0       0       0       0       0       0       0       0       
      +0       0       0       0
  2019 ;;      Temps:          0       0       0       0       0       0       0       0       0       0       0       0       
      +0       0       0       0
  2020 ;;      Totals:         2       0       0       0       0       0       0       0       0       0       0       0       
      +0       0       0       0
  2021 ;;Total ram usage:        2 bytes
  2022 ;; Hardware stack levels used:    1
  2023 ;; Hardware stack levels required when called:    7
  2024 ;; This function calls:
  2025 ;;		Nothing
  2026 ;; This function is called by:
  2027 ;;		_ECAN_Initialize
  2028 ;; This function uses a non-reentrant model
  2029 ;;
  2030                           
  2031                           	psect	text24
  2032  00084E                     __ptext24:
  2033                           	opt callstack 0
  2034  00084E                     _ECAN_SetMessageErrorInterruptHandler:
  2035                           	opt callstack 21
  2036  00084E                     
  2037                           ;mcc_generated_files/ecan.c: 642: void ECAN_SetMessageErrorInterruptHandler(void (*handl
      +                          er)(void));mcc_generated_files/ecan.c: 643: {;mcc_generated_files/ecan.c: 644:     Messa
      +                          geErrorInterruptHandler = handler;
  2038  00084E  C04E  F019         	movff	ECAN_SetMessageErrorInterruptHandler@handler,_MessageErrorInterruptHandler
  2039  000852  C04F  F01A         	movff	ECAN_SetMessageErrorInterruptHandler@handler+1,_MessageErrorInterruptHandler+1
  2040  000856  0012               	return		;funcret
  2041  000858                     __end_of_ECAN_SetMessageErrorInterruptHandler:
  2042                           	opt callstack 0
  2043                           
  2044 ;; *************** function _ECAN_SetBusOffHandler *****************
  2045 ;; Defined at:
  2046 ;;		line 564 in file "mcc_generated_files/ecan.c"
  2047 ;; Parameters:    Size  Location     Type
  2048 ;;  handler         2    8[COMRAM] PTR FTN()void 
  2049 ;;		 -> BusOffDefaultHandler(1), 
  2050 ;; Auto vars:     Size  Location     Type
  2051 ;;		None
  2052 ;; Return value:  Size  Location     Type
  2053 ;;                  1    wreg      void 
  2054 ;; Registers used:
  2055 ;;		wreg, status,2, status,0
  2056 ;; Tracked objects:
  2057 ;;		On entry : 0/0
  2058 ;;		On exit  : 0/0
  2059 ;;		Unchanged: 0/0
  2060 ;; Data sizes:     COMRAM   BANK0   BANK1   BANK2   BANK3   BANK4   BANK5   BANK6   BANK7   BANK8   BANK9  BANK10  BANK1
      +1  BANK12  BANK13  BANK14
  2061 ;;      Params:         2       0       0       0       0       0       0       0       0       0       0       0       
      +0       0       0       0
  2062 ;;      Locals:         0       0       0       0       0       0       0       0       0       0       0       0       
      +0       0       0       0
  2063 ;;      Temps:          0       0       0       0       0       0       0       0       0       0       0       0       
      +0       0       0       0
  2064 ;;      Totals:         2       0       0       0       0       0       0       0       0       0       0       0       
      +0       0       0       0
  2065 ;;Total ram usage:        2 bytes
  2066 ;; Hardware stack levels used:    1
  2067 ;; Hardware stack levels required when called:    7
  2068 ;; This function calls:
  2069 ;;		Nothing
  2070 ;; This function is called by:
  2071 ;;		_ECAN_Initialize
  2072 ;; This function uses a non-reentrant model
  2073 ;;
  2074                           
  2075                           	psect	text25
  2076  000858                     __ptext25:
  2077                           	opt callstack 0
  2078  000858                     _ECAN_SetBusOffHandler:
  2079                           	opt callstack 21
  2080  000858                     
  2081                           ;mcc_generated_files/ecan.c: 564: void ECAN_SetBusOffHandler(void (*handler)(void));mcc_
      +                          generated_files/ecan.c: 565: {;mcc_generated_files/ecan.c: 566:     BusOffHandler = hand
      +                          ler;
  2082  000858  C04E  F025         	movff	ECAN_SetBusOffHandler@handler,_BusOffHandler
  2083  00085C  C04F  F026         	movff	ECAN_SetBusOffHandler@handler+1,_BusOffHandler+1
  2084  000860  0012               	return		;funcret
  2085  000862                     __end_of_ECAN_SetBusOffHandler:
  2086                           	opt callstack 0
  2087                           
  2088 ;; *************** function _INTERRUPT_InterruptManagerLow *****************
  2089 ;; Defined at:
  2090 ;;		line 109 in file "mcc_generated_files/interrupt_manager.c"
  2091 ;; Parameters:    Size  Location     Type
  2092 ;;		None
  2093 ;; Auto vars:     Size  Location     Type
  2094 ;;		None
  2095 ;; Return value:  Size  Location     Type
  2096 ;;                  1    wreg      void 
  2097 ;; Registers used:
  2098 ;;		wreg, pclath, tosl, cstack
  2099 ;; Tracked objects:
  2100 ;;		On entry : 0/0
  2101 ;;		On exit  : 0/0
  2102 ;;		Unchanged: 0/0
  2103 ;; Data sizes:     COMRAM   BANK0   BANK1   BANK2   BANK3   BANK4   BANK5   BANK6   BANK7   BANK8   BANK9  BANK10  BANK1
      +1  BANK12  BANK13  BANK14
  2104 ;;      Params:         0       0       0       0       0       0       0       0       0       0       0       0       
      +0       0       0       0
  2105 ;;      Locals:         0       0       0       0       0       0       0       0       0       0       0       0       
      +0       0       0       0
  2106 ;;      Temps:          4       0       0       0       0       0       0       0       0       0       0       0       
      +0       0       0       0
  2107 ;;      Totals:         4       0       0       0       0       0       0       0       0       0       0       0       
      +0       0       0       0
  2108 ;;Total ram usage:        4 bytes
  2109 ;; Hardware stack levels used:    1
  2110 ;; Hardware stack levels required when called:    6
  2111 ;; This function calls:
  2112 ;;		_ECAN_ERRI_ISR
  2113 ;;		_ECAN_IRXI_ISR
  2114 ;;		_ECAN_RXB0I_ISR
  2115 ;;		_ECAN_RXB1I_ISR
  2116 ;;		_ECAN_TXB0I_ISR
  2117 ;;		_ECAN_TXB1I_ISR
  2118 ;;		_ECAN_TXB2I_ISR
  2119 ;;		_ECAN_WAKI_ISR
  2120 ;; This function is called by:
  2121 ;;		Interrupt level 1
  2122 ;; This function uses a non-reentrant model
  2123 ;;
  2124                           
  2125                           	psect	intcodelo
  2126  000018                     __pintcodelo:
  2127                           	opt callstack 0
  2128  000018                     _INTERRUPT_InterruptManagerLow:
  2129                           	opt callstack 21
  2130                           
  2131                           ;incstack = 0
  2132  000018  8051               	bsf	int$flags,0,c	;set compiler interrupt flag (level 1)
  2133  00001A  CFE8 F04A          	movff	wreg,??_INTERRUPT_InterruptManagerLow
  2134  00001E  CFE0 F04B          	movff	bsr,??_INTERRUPT_InterruptManagerLow+1
  2135  000022  CFFA F04C          	movff	pclath,??_INTERRUPT_InterruptManagerLow+2
  2136  000026  CFFB F04D          	movff	pclatu,??_INTERRUPT_InterruptManagerLow+3
  2137  00002A                     
  2138                           ;mcc_generated_files/interrupt_manager.c: 112:     if(PIE5bits.WAKIE == 1 && PIR5bits.WA
      +                          KIF == 1)
  2139  00002A  AC76               	btfss	118,6,c	;volatile
  2140  00002C  EF1A  F000         	goto	i1u39_21
  2141  000030  EF1C  F000         	goto	i1u39_20
  2142  000034                     i1u39_21:
  2143  000034  EF27  F000         	goto	i1l51
  2144  000038                     i1u39_20:
  2145  000038  AC77               	btfss	119,6,c	;volatile
  2146  00003A  EF21  F000         	goto	i1u40_21
  2147  00003E  EF23  F000         	goto	i1u40_20
  2148  000042                     i1u40_21:
  2149  000042  EF27  F000         	goto	i1l51
  2150  000046                     i1u40_20:
  2151  000046                     
  2152                           ;mcc_generated_files/interrupt_manager.c: 113:     {;mcc_generated_files/interrupt_manag
      +                          er.c: 114:         ECAN_WAKI_ISR();
  2153  000046  EC36  F003         	call	_ECAN_WAKI_ISR	;wreg free
  2154                           
  2155                           ;mcc_generated_files/interrupt_manager.c: 115:     }
  2156  00004A  EFA5  F000         	goto	i1l67
  2157  00004E                     i1l51:
  2158  00004E  AA76               	btfss	118,5,c	;volatile
  2159  000050  EF2C  F000         	goto	i1u41_21
  2160  000054  EF2E  F000         	goto	i1u41_20
  2161  000058                     i1u41_21:
  2162  000058  EF39  F000         	goto	i1l53
  2163  00005C                     i1u41_20:
  2164  00005C  AA77               	btfss	119,5,c	;volatile
  2165  00005E  EF33  F000         	goto	i1u42_21
  2166  000062  EF35  F000         	goto	i1u42_20
  2167  000066                     i1u42_21:
  2168  000066  EF39  F000         	goto	i1l53
  2169  00006A                     i1u42_20:
  2170  00006A                     
  2171                           ;mcc_generated_files/interrupt_manager.c: 117:     {;mcc_generated_files/interrupt_manag
      +                          er.c: 118:         ECAN_ERRI_ISR();
  2172  00006A  EC7A  F001         	call	_ECAN_ERRI_ISR	;wreg free
  2173                           
  2174                           ;mcc_generated_files/interrupt_manager.c: 119:     }
  2175  00006E  EFA5  F000         	goto	i1l67
  2176  000072                     i1l53:
  2177  000072  A276               	btfss	118,1,c	;volatile
  2178  000074  EF3E  F000         	goto	i1u43_21
  2179  000078  EF40  F000         	goto	i1u43_20
  2180  00007C                     i1u43_21:
  2181  00007C  EF4B  F000         	goto	i1l55
  2182  000080                     i1u43_20:
  2183  000080  A277               	btfss	119,1,c	;volatile
  2184  000082  EF45  F000         	goto	i1u44_21
  2185  000086  EF47  F000         	goto	i1u44_20
  2186  00008A                     i1u44_21:
  2187  00008A  EF4B  F000         	goto	i1l55
  2188  00008E                     i1u44_20:
  2189  00008E                     
  2190                           ;mcc_generated_files/interrupt_manager.c: 121:     {;mcc_generated_files/interrupt_manag
      +                          er.c: 122:         ECAN_RXB1I_ISR();
  2191  00008E  EC72  F003         	call	_ECAN_RXB1I_ISR	;wreg free
  2192                           
  2193                           ;mcc_generated_files/interrupt_manager.c: 123:     }
  2194  000092  EFA5  F000         	goto	i1l67
  2195  000096                     i1l55:
  2196  000096  AE76               	btfss	118,7,c	;volatile
  2197  000098  EF50  F000         	goto	i1u45_21
  2198  00009C  EF52  F000         	goto	i1u45_20
  2199  0000A0                     i1u45_21:
  2200  0000A0  EF5D  F000         	goto	i1l57
  2201  0000A4                     i1u45_20:
  2202  0000A4  AE77               	btfss	119,7,c	;volatile
  2203  0000A6  EF57  F000         	goto	i1u46_21
  2204  0000AA  EF59  F000         	goto	i1u46_20
  2205  0000AE                     i1u46_21:
  2206  0000AE  EF5D  F000         	goto	i1l57
  2207  0000B2                     i1u46_20:
  2208  0000B2                     
  2209                           ;mcc_generated_files/interrupt_manager.c: 125:     {;mcc_generated_files/interrupt_manag
      +                          er.c: 126:         ECAN_IRXI_ISR();
  2210  0000B2  EC90  F003         	call	_ECAN_IRXI_ISR	;wreg free
  2211                           
  2212                           ;mcc_generated_files/interrupt_manager.c: 127:     }
  2213  0000B6  EFA5  F000         	goto	i1l67
  2214  0000BA                     i1l57:
  2215  0000BA  A076               	btfss	118,0,c	;volatile
  2216  0000BC  EF62  F000         	goto	i1u47_21
  2217  0000C0  EF64  F000         	goto	i1u47_20
  2218  0000C4                     i1u47_21:
  2219  0000C4  EF6F  F000         	goto	i1l59
  2220  0000C8                     i1u47_20:
  2221  0000C8  A077               	btfss	119,0,c	;volatile
  2222  0000CA  EF69  F000         	goto	i1u48_21
  2223  0000CE  EF6B  F000         	goto	i1u48_20
  2224  0000D2                     i1u48_21:
  2225  0000D2  EF6F  F000         	goto	i1l59
  2226  0000D6                     i1u48_20:
  2227  0000D6                     
  2228                           ;mcc_generated_files/interrupt_manager.c: 129:     {;mcc_generated_files/interrupt_manag
      +                          er.c: 130:         ECAN_RXB0I_ISR();
  2229  0000D6  EC81  F003         	call	_ECAN_RXB0I_ISR	;wreg free
  2230                           
  2231                           ;mcc_generated_files/interrupt_manager.c: 131:     }
  2232  0000DA  EFA5  F000         	goto	i1l67
  2233  0000DE                     i1l59:
  2234  0000DE  A876               	btfss	118,4,c	;volatile
  2235  0000E0  EF74  F000         	goto	i1u49_21
  2236  0000E4  EF76  F000         	goto	i1u49_20
  2237  0000E8                     i1u49_21:
  2238  0000E8  EF81  F000         	goto	i1l61
  2239  0000EC                     i1u49_20:
  2240  0000EC  A877               	btfss	119,4,c	;volatile
  2241  0000EE  EF7B  F000         	goto	i1u50_21
  2242  0000F2  EF7D  F000         	goto	i1u50_20
  2243  0000F6                     i1u50_21:
  2244  0000F6  EF81  F000         	goto	i1l61
  2245  0000FA                     i1u50_20:
  2246  0000FA                     
  2247                           ;mcc_generated_files/interrupt_manager.c: 133:     {;mcc_generated_files/interrupt_manag
      +                          er.c: 134:         ECAN_TXB2I_ISR();
  2248  0000FA  EC45  F003         	call	_ECAN_TXB2I_ISR	;wreg free
  2249                           
  2250                           ;mcc_generated_files/interrupt_manager.c: 135:     }
  2251  0000FE  EFA5  F000         	goto	i1l67
  2252  000102                     i1l61:
  2253  000102  A676               	btfss	118,3,c	;volatile
  2254  000104  EF86  F000         	goto	i1u51_21
  2255  000108  EF88  F000         	goto	i1u51_20
  2256  00010C                     i1u51_21:
  2257  00010C  EF93  F000         	goto	i1l63
  2258  000110                     i1u51_20:
  2259  000110  A677               	btfss	119,3,c	;volatile
  2260  000112  EF8D  F000         	goto	i1u52_21
  2261  000116  EF8F  F000         	goto	i1u52_20
  2262  00011A                     i1u52_21:
  2263  00011A  EF93  F000         	goto	i1l63
  2264  00011E                     i1u52_20:
  2265  00011E                     
  2266                           ;mcc_generated_files/interrupt_manager.c: 137:     {;mcc_generated_files/interrupt_manag
      +                          er.c: 138:         ECAN_TXB1I_ISR();
  2267  00011E  EC54  F003         	call	_ECAN_TXB1I_ISR	;wreg free
  2268                           
  2269                           ;mcc_generated_files/interrupt_manager.c: 139:     }
  2270  000122  EFA5  F000         	goto	i1l67
  2271  000126                     i1l63:
  2272  000126  A476               	btfss	118,2,c	;volatile
  2273  000128  EF98  F000         	goto	i1u53_21
  2274  00012C  EF9A  F000         	goto	i1u53_20
  2275  000130                     i1u53_21:
  2276  000130  EFA5  F000         	goto	i1l62
  2277  000134                     i1u53_20:
  2278  000134  A477               	btfss	119,2,c	;volatile
  2279  000136  EF9F  F000         	goto	i1u54_21
  2280  00013A  EFA1  F000         	goto	i1u54_20
  2281  00013E                     i1u54_21:
  2282  00013E  EFA5  F000         	goto	i1l62
  2283  000142                     i1u54_20:
  2284  000142                     
  2285                           ;mcc_generated_files/interrupt_manager.c: 141:     {;mcc_generated_files/interrupt_manag
      +                          er.c: 142:         ECAN_TXB0I_ISR();
  2286  000142  EC63  F003         	call	_ECAN_TXB0I_ISR	;wreg free
  2287                           
  2288                           ;mcc_generated_files/interrupt_manager.c: 143:     }
  2289  000146  EFA5  F000         	goto	i1l67
  2290  00014A                     i1l62:
  2291  00014A                     i1l67:
  2292  00014A  C04D  FFFB         	movff	??_INTERRUPT_InterruptManagerLow+3,pclatu
  2293  00014E  C04C  FFFA         	movff	??_INTERRUPT_InterruptManagerLow+2,pclath
  2294  000152  C04B  FFE0         	movff	??_INTERRUPT_InterruptManagerLow+1,bsr
  2295  000156  C04A  FFE8         	movff	??_INTERRUPT_InterruptManagerLow,wreg
  2296  00015A  9051               	bcf	int$flags,0,c	;clear compiler interrupt flag (level 1)
  2297  00015C  0010               	retfie	
  2298  00015E                     __end_of_INTERRUPT_InterruptManagerLow:
  2299                           	opt callstack 0
  2300                           
  2301 ;; *************** function _ECAN_WAKI_ISR *****************
  2302 ;; Defined at:
  2303 ;;		line 636 in file "mcc_generated_files/ecan.c"
  2304 ;; Parameters:    Size  Location     Type
  2305 ;;		None
  2306 ;; Auto vars:     Size  Location     Type
  2307 ;;		None
  2308 ;; Return value:  Size  Location     Type
  2309 ;;                  1    wreg      void 
  2310 ;; Registers used:
  2311 ;;		wreg, pclath, tosl, cstack
  2312 ;; Tracked objects:
  2313 ;;		On entry : 0/0
  2314 ;;		On exit  : 0/0
  2315 ;;		Unchanged: 0/0
  2316 ;; Data sizes:     COMRAM   BANK0   BANK1   BANK2   BANK3   BANK4   BANK5   BANK6   BANK7   BANK8   BANK9  BANK10  BANK1
      +1  BANK12  BANK13  BANK14
  2317 ;;      Params:         0       0       0       0       0       0       0       0       0       0       0       0       
      +0       0       0       0
  2318 ;;      Locals:         0       0       0       0       0       0       0       0       0       0       0       0       
      +0       0       0       0
  2319 ;;      Temps:          0       0       0       0       0       0       0       0       0       0       0       0       
      +0       0       0       0
  2320 ;;      Totals:         0       0       0       0       0       0       0       0       0       0       0       0       
      +0       0       0       0
  2321 ;;Total ram usage:        0 bytes
  2322 ;; Hardware stack levels used:    1
  2323 ;; Hardware stack levels required when called:    5
  2324 ;; This function calls:
  2325 ;;		Absolute function
  2326 ;;		_WakeUpDefaultInterruptHandler
  2327 ;; This function is called by:
  2328 ;;		_INTERRUPT_InterruptManagerLow
  2329 ;; This function uses a non-reentrant model
  2330 ;;
  2331                           
  2332                           	psect	text27
  2333  00066C                     __ptext27:
  2334                           	opt callstack 0
  2335  00066C                     _ECAN_WAKI_ISR:
  2336                           	opt callstack 21
  2337  00066C                     
  2338                           ;mcc_generated_files/ecan.c: 638:     WakeUpInterruptHandler();
  2339  00066C  D802               	call	i1u4_28
  2340  00066E  EF43  F003         	goto	i1u4_29
  2341  000672                     i1u4_28:
  2342  000672  0005               	push	
  2343  000674  6EFA               	movwf	pclath,c
  2344  000676  501B               	movf	_WakeUpInterruptHandler^0,w,c
  2345  000678  6EFD               	movwf	tosl,c
  2346  00067A  501C               	movf	(_WakeUpInterruptHandler+1)^0,w,c
  2347  00067C  6EFE               	movwf	tosh,c
  2348  00067E  50F8               	movf	tblptru,w,c
  2349  000680  6EFF               	movwf	tosu,c
  2350  000682  50FA               	movf	pclath,w,c
  2351  000684  0012               	return		;indir
  2352  000686                     i1u4_29:
  2353  000686                     
  2354                           ;mcc_generated_files/ecan.c: 639:     PIR5bits.WAKIF = 0;
  2355  000686  9C77               	bcf	119,6,c	;volatile
  2356  000688  0012               	return		;funcret
  2357  00068A                     __end_of_ECAN_WAKI_ISR:
  2358                           	opt callstack 0
  2359                           
  2360 ;; *************** function _WakeUpDefaultInterruptHandler *****************
  2361 ;; Defined at:
  2362 ;;		line 88 in file "mcc_generated_files/ecan.c"
  2363 ;; Parameters:    Size  Location     Type
  2364 ;;		None
  2365 ;; Auto vars:     Size  Location     Type
  2366 ;;		None
  2367 ;; Return value:  Size  Location     Type
  2368 ;;                  1    wreg      void 
  2369 ;; Registers used:
  2370 ;;		None
  2371 ;; Tracked objects:
  2372 ;;		On entry : 0/0
  2373 ;;		On exit  : 0/0
  2374 ;;		Unchanged: 0/0
  2375 ;; Data sizes:     COMRAM   BANK0   BANK1   BANK2   BANK3   BANK4   BANK5   BANK6   BANK7   BANK8   BANK9  BANK10  BANK1
      +1  BANK12  BANK13  BANK14
  2376 ;;      Params:         0       0       0       0       0       0       0       0       0       0       0       0       
      +0       0       0       0
  2377 ;;      Locals:         0       0       0       0       0       0       0       0       0       0       0       0       
      +0       0       0       0
  2378 ;;      Temps:          0       0       0       0       0       0       0       0       0       0       0       0       
      +0       0       0       0
  2379 ;;      Totals:         0       0       0       0       0       0       0       0       0       0       0       0       
      +0       0       0       0
  2380 ;;Total ram usage:        0 bytes
  2381 ;; Hardware stack levels used:    1
  2382 ;; Hardware stack levels required when called:    4
  2383 ;; This function calls:
  2384 ;;		Nothing
  2385 ;; This function is called by:
  2386 ;;		_ECAN_Initialize
  2387 ;;		_ECAN_WAKI_ISR
  2388 ;; This function uses a non-reentrant model
  2389 ;;
  2390                           
  2391                           	psect	text28
  2392  00086E                     __ptext28:
  2393                           	opt callstack 0
  2394  00086E                     _WakeUpDefaultInterruptHandler:
  2395                           	opt callstack 21
  2396  00086E  0012               	return		;funcret
  2397  000870                     __end_of_WakeUpDefaultInterruptHandler:
  2398                           	opt callstack 0
  2399                           
  2400 ;; *************** function _ECAN_TXB2I_ISR *****************
  2401 ;; Defined at:
  2402 ;;		line 548 in file "mcc_generated_files/ecan.c"
  2403 ;; Parameters:    Size  Location     Type
  2404 ;;		None
  2405 ;; Auto vars:     Size  Location     Type
  2406 ;;		None
  2407 ;; Return value:  Size  Location     Type
  2408 ;;                  1    wreg      void 
  2409 ;; Registers used:
  2410 ;;		wreg, pclath, tosl, cstack
  2411 ;; Tracked objects:
  2412 ;;		On entry : 0/0
  2413 ;;		On exit  : 0/0
  2414 ;;		Unchanged: 0/0
  2415 ;; Data sizes:     COMRAM   BANK0   BANK1   BANK2   BANK3   BANK4   BANK5   BANK6   BANK7   BANK8   BANK9  BANK10  BANK1
      +1  BANK12  BANK13  BANK14
  2416 ;;      Params:         0       0       0       0       0       0       0       0       0       0       0       0       
      +0       0       0       0
  2417 ;;      Locals:         0       0       0       0       0       0       0       0       0       0       0       0       
      +0       0       0       0
  2418 ;;      Temps:          0       0       0       0       0       0       0       0       0       0       0       0       
      +0       0       0       0
  2419 ;;      Totals:         0       0       0       0       0       0       0       0       0       0       0       0       
      +0       0       0       0
  2420 ;;Total ram usage:        0 bytes
  2421 ;; Hardware stack levels used:    1
  2422 ;; Hardware stack levels required when called:    5
  2423 ;; This function calls:
  2424 ;;		Absolute function
  2425 ;;		_TXB2DefaultInterruptHandler
  2426 ;; This function is called by:
  2427 ;;		_INTERRUPT_InterruptManagerLow
  2428 ;; This function uses a non-reentrant model
  2429 ;;
  2430                           
  2431                           	psect	text29
  2432  00068A                     __ptext29:
  2433                           	opt callstack 0
  2434  00068A                     _ECAN_TXB2I_ISR:
  2435                           	opt callstack 21
  2436  00068A                     
  2437                           ;mcc_generated_files/ecan.c: 550:     TXB2InterruptHandler();
  2438  00068A  D802               	call	i1u22_28
  2439  00068C  EF52  F003         	goto	i1u22_29
  2440  000690                     i1u22_28:
  2441  000690  0005               	push	
  2442  000692  6EFA               	movwf	pclath,c
  2443  000694  502B               	movf	_TXB2InterruptHandler^0,w,c
  2444  000696  6EFD               	movwf	tosl,c
  2445  000698  502C               	movf	(_TXB2InterruptHandler+1)^0,w,c
  2446  00069A  6EFE               	movwf	tosh,c
  2447  00069C  50F8               	movf	tblptru,w,c
  2448  00069E  6EFF               	movwf	tosu,c
  2449  0006A0  50FA               	movf	pclath,w,c
  2450  0006A2  0012               	return		;indir
  2451  0006A4                     i1u22_29:
  2452  0006A4                     
  2453                           ;mcc_generated_files/ecan.c: 551:     PIR5bits.TXB2IF = 0;
  2454  0006A4  9877               	bcf	119,4,c	;volatile
  2455  0006A6  0012               	return		;funcret
  2456  0006A8                     __end_of_ECAN_TXB2I_ISR:
  2457                           	opt callstack 0
  2458                           
  2459 ;; *************** function _TXB2DefaultInterruptHandler *****************
  2460 ;; Defined at:
  2461 ;;		line 80 in file "mcc_generated_files/ecan.c"
  2462 ;; Parameters:    Size  Location     Type
  2463 ;;		None
  2464 ;; Auto vars:     Size  Location     Type
  2465 ;;		None
  2466 ;; Return value:  Size  Location     Type
  2467 ;;                  1    wreg      void 
  2468 ;; Registers used:
  2469 ;;		None
  2470 ;; Tracked objects:
  2471 ;;		On entry : 0/0
  2472 ;;		On exit  : 0/0
  2473 ;;		Unchanged: 0/0
  2474 ;; Data sizes:     COMRAM   BANK0   BANK1   BANK2   BANK3   BANK4   BANK5   BANK6   BANK7   BANK8   BANK9  BANK10  BANK1
      +1  BANK12  BANK13  BANK14
  2475 ;;      Params:         0       0       0       0       0       0       0       0       0       0       0       0       
      +0       0       0       0
  2476 ;;      Locals:         0       0       0       0       0       0       0       0       0       0       0       0       
      +0       0       0       0
  2477 ;;      Temps:          0       0       0       0       0       0       0       0       0       0       0       0       
      +0       0       0       0
  2478 ;;      Totals:         0       0       0       0       0       0       0       0       0       0       0       0       
      +0       0       0       0
  2479 ;;Total ram usage:        0 bytes
  2480 ;; Hardware stack levels used:    1
  2481 ;; Hardware stack levels required when called:    4
  2482 ;; This function calls:
  2483 ;;		Nothing
  2484 ;; This function is called by:
  2485 ;;		_ECAN_Initialize
  2486 ;;		_ECAN_TXB2I_ISR
  2487 ;; This function uses a non-reentrant model
  2488 ;;
  2489                           
  2490                           	psect	text30
  2491  000870                     __ptext30:
  2492                           	opt callstack 0
  2493  000870                     _TXB2DefaultInterruptHandler:
  2494                           	opt callstack 21
  2495  000870  0012               	return		;funcret
  2496  000872                     __end_of_TXB2DefaultInterruptHandler:
  2497                           	opt callstack 0
  2498                           
  2499 ;; *************** function _ECAN_TXB1I_ISR *****************
  2500 ;; Defined at:
  2501 ;;		line 537 in file "mcc_generated_files/ecan.c"
  2502 ;; Parameters:    Size  Location     Type
  2503 ;;		None
  2504 ;; Auto vars:     Size  Location     Type
  2505 ;;		None
  2506 ;; Return value:  Size  Location     Type
  2507 ;;                  1    wreg      void 
  2508 ;; Registers used:
  2509 ;;		wreg, pclath, tosl, cstack
  2510 ;; Tracked objects:
  2511 ;;		On entry : 0/0
  2512 ;;		On exit  : 0/0
  2513 ;;		Unchanged: 0/0
  2514 ;; Data sizes:     COMRAM   BANK0   BANK1   BANK2   BANK3   BANK4   BANK5   BANK6   BANK7   BANK8   BANK9  BANK10  BANK1
      +1  BANK12  BANK13  BANK14
  2515 ;;      Params:         0       0       0       0       0       0       0       0       0       0       0       0       
      +0       0       0       0
  2516 ;;      Locals:         0       0       0       0       0       0       0       0       0       0       0       0       
      +0       0       0       0
  2517 ;;      Temps:          0       0       0       0       0       0       0       0       0       0       0       0       
      +0       0       0       0
  2518 ;;      Totals:         0       0       0       0       0       0       0       0       0       0       0       0       
      +0       0       0       0
  2519 ;;Total ram usage:        0 bytes
  2520 ;; Hardware stack levels used:    1
  2521 ;; Hardware stack levels required when called:    5
  2522 ;; This function calls:
  2523 ;;		Absolute function
  2524 ;;		_TXB1DefaultInterruptHandler
  2525 ;; This function is called by:
  2526 ;;		_INTERRUPT_InterruptManagerLow
  2527 ;; This function uses a non-reentrant model
  2528 ;;
  2529                           
  2530                           	psect	text31
  2531  0006A8                     __ptext31:
  2532                           	opt callstack 0
  2533  0006A8                     _ECAN_TXB1I_ISR:
  2534                           	opt callstack 21
  2535  0006A8                     
  2536                           ;mcc_generated_files/ecan.c: 539:     TXB1InterruptHandler();
  2537  0006A8  D802               	call	i1u23_28
  2538  0006AA  EF61  F003         	goto	i1u23_29
  2539  0006AE                     i1u23_28:
  2540  0006AE  0005               	push	
  2541  0006B0  6EFA               	movwf	pclath,c
  2542  0006B2  502D               	movf	_TXB1InterruptHandler^0,w,c
  2543  0006B4  6EFD               	movwf	tosl,c
  2544  0006B6  502E               	movf	(_TXB1InterruptHandler+1)^0,w,c
  2545  0006B8  6EFE               	movwf	tosh,c
  2546  0006BA  50F8               	movf	tblptru,w,c
  2547  0006BC  6EFF               	movwf	tosu,c
  2548  0006BE  50FA               	movf	pclath,w,c
  2549  0006C0  0012               	return		;indir
  2550  0006C2                     i1u23_29:
  2551  0006C2                     
  2552                           ;mcc_generated_files/ecan.c: 540:     PIR5bits.TXB1IF = 0;
  2553  0006C2  9677               	bcf	119,3,c	;volatile
  2554  0006C4  0012               	return		;funcret
  2555  0006C6                     __end_of_ECAN_TXB1I_ISR:
  2556                           	opt callstack 0
  2557                           
  2558 ;; *************** function _TXB1DefaultInterruptHandler *****************
  2559 ;; Defined at:
  2560 ;;		line 79 in file "mcc_generated_files/ecan.c"
  2561 ;; Parameters:    Size  Location     Type
  2562 ;;		None
  2563 ;; Auto vars:     Size  Location     Type
  2564 ;;		None
  2565 ;; Return value:  Size  Location     Type
  2566 ;;                  1    wreg      void 
  2567 ;; Registers used:
  2568 ;;		None
  2569 ;; Tracked objects:
  2570 ;;		On entry : 0/0
  2571 ;;		On exit  : 0/0
  2572 ;;		Unchanged: 0/0
  2573 ;; Data sizes:     COMRAM   BANK0   BANK1   BANK2   BANK3   BANK4   BANK5   BANK6   BANK7   BANK8   BANK9  BANK10  BANK1
      +1  BANK12  BANK13  BANK14
  2574 ;;      Params:         0       0       0       0       0       0       0       0       0       0       0       0       
      +0       0       0       0
  2575 ;;      Locals:         0       0       0       0       0       0       0       0       0       0       0       0       
      +0       0       0       0
  2576 ;;      Temps:          0       0       0       0       0       0       0       0       0       0       0       0       
      +0       0       0       0
  2577 ;;      Totals:         0       0       0       0       0       0       0       0       0       0       0       0       
      +0       0       0       0
  2578 ;;Total ram usage:        0 bytes
  2579 ;; Hardware stack levels used:    1
  2580 ;; Hardware stack levels required when called:    4
  2581 ;; This function calls:
  2582 ;;		Nothing
  2583 ;; This function is called by:
  2584 ;;		_ECAN_Initialize
  2585 ;;		_ECAN_TXB1I_ISR
  2586 ;; This function uses a non-reentrant model
  2587 ;;
  2588                           
  2589                           	psect	text32
  2590  000872                     __ptext32:
  2591                           	opt callstack 0
  2592  000872                     _TXB1DefaultInterruptHandler:
  2593                           	opt callstack 21
  2594  000872  0012               	return		;funcret
  2595  000874                     __end_of_TXB1DefaultInterruptHandler:
  2596                           	opt callstack 0
  2597                           
  2598 ;; *************** function _ECAN_TXB0I_ISR *****************
  2599 ;; Defined at:
  2600 ;;		line 526 in file "mcc_generated_files/ecan.c"
  2601 ;; Parameters:    Size  Location     Type
  2602 ;;		None
  2603 ;; Auto vars:     Size  Location     Type
  2604 ;;		None
  2605 ;; Return value:  Size  Location     Type
  2606 ;;                  1    wreg      void 
  2607 ;; Registers used:
  2608 ;;		wreg, pclath, tosl, cstack
  2609 ;; Tracked objects:
  2610 ;;		On entry : 0/0
  2611 ;;		On exit  : 0/0
  2612 ;;		Unchanged: 0/0
  2613 ;; Data sizes:     COMRAM   BANK0   BANK1   BANK2   BANK3   BANK4   BANK5   BANK6   BANK7   BANK8   BANK9  BANK10  BANK1
      +1  BANK12  BANK13  BANK14
  2614 ;;      Params:         0       0       0       0       0       0       0       0       0       0       0       0       
      +0       0       0       0
  2615 ;;      Locals:         0       0       0       0       0       0       0       0       0       0       0       0       
      +0       0       0       0
  2616 ;;      Temps:          0       0       0       0       0       0       0       0       0       0       0       0       
      +0       0       0       0
  2617 ;;      Totals:         0       0       0       0       0       0       0       0       0       0       0       0       
      +0       0       0       0
  2618 ;;Total ram usage:        0 bytes
  2619 ;; Hardware stack levels used:    1
  2620 ;; Hardware stack levels required when called:    5
  2621 ;; This function calls:
  2622 ;;		Absolute function
  2623 ;;		_TXB0DefaultInterruptHandler
  2624 ;; This function is called by:
  2625 ;;		_INTERRUPT_InterruptManagerLow
  2626 ;; This function uses a non-reentrant model
  2627 ;;
  2628                           
  2629                           	psect	text33
  2630  0006C6                     __ptext33:
  2631                           	opt callstack 0
  2632  0006C6                     _ECAN_TXB0I_ISR:
  2633                           	opt callstack 21
  2634  0006C6                     
  2635                           ;mcc_generated_files/ecan.c: 528:     TXB0InterruptHandler();
  2636  0006C6  D802               	call	i1u24_28
  2637  0006C8  EF70  F003         	goto	i1u24_29
  2638  0006CC                     i1u24_28:
  2639  0006CC  0005               	push	
  2640  0006CE  6EFA               	movwf	pclath,c
  2641  0006D0  502F               	movf	_TXB0InterruptHandler^0,w,c
  2642  0006D2  6EFD               	movwf	tosl,c
  2643  0006D4  5030               	movf	(_TXB0InterruptHandler+1)^0,w,c
  2644  0006D6  6EFE               	movwf	tosh,c
  2645  0006D8  50F8               	movf	tblptru,w,c
  2646  0006DA  6EFF               	movwf	tosu,c
  2647  0006DC  50FA               	movf	pclath,w,c
  2648  0006DE  0012               	return		;indir
  2649  0006E0                     i1u24_29:
  2650  0006E0                     
  2651                           ;mcc_generated_files/ecan.c: 529:     PIR5bits.TXB0IF = 0;
  2652  0006E0  9477               	bcf	119,2,c	;volatile
  2653  0006E2  0012               	return		;funcret
  2654  0006E4                     __end_of_ECAN_TXB0I_ISR:
  2655                           	opt callstack 0
  2656                           
  2657 ;; *************** function _TXB0DefaultInterruptHandler *****************
  2658 ;; Defined at:
  2659 ;;		line 78 in file "mcc_generated_files/ecan.c"
  2660 ;; Parameters:    Size  Location     Type
  2661 ;;		None
  2662 ;; Auto vars:     Size  Location     Type
  2663 ;;		None
  2664 ;; Return value:  Size  Location     Type
  2665 ;;                  1    wreg      void 
  2666 ;; Registers used:
  2667 ;;		None
  2668 ;; Tracked objects:
  2669 ;;		On entry : 0/0
  2670 ;;		On exit  : 0/0
  2671 ;;		Unchanged: 0/0
  2672 ;; Data sizes:     COMRAM   BANK0   BANK1   BANK2   BANK3   BANK4   BANK5   BANK6   BANK7   BANK8   BANK9  BANK10  BANK1
      +1  BANK12  BANK13  BANK14
  2673 ;;      Params:         0       0       0       0       0       0       0       0       0       0       0       0       
      +0       0       0       0
  2674 ;;      Locals:         0       0       0       0       0       0       0       0       0       0       0       0       
      +0       0       0       0
  2675 ;;      Temps:          0       0       0       0       0       0       0       0       0       0       0       0       
      +0       0       0       0
  2676 ;;      Totals:         0       0       0       0       0       0       0       0       0       0       0       0       
      +0       0       0       0
  2677 ;;Total ram usage:        0 bytes
  2678 ;; Hardware stack levels used:    1
  2679 ;; Hardware stack levels required when called:    4
  2680 ;; This function calls:
  2681 ;;		Nothing
  2682 ;; This function is called by:
  2683 ;;		_ECAN_Initialize
  2684 ;;		_ECAN_TXB0I_ISR
  2685 ;; This function uses a non-reentrant model
  2686 ;;
  2687                           
  2688                           	psect	text34
  2689  000874                     __ptext34:
  2690                           	opt callstack 0
  2691  000874                     _TXB0DefaultInterruptHandler:
  2692                           	opt callstack 21
  2693  000874  0012               	return		;funcret
  2694  000876                     __end_of_TXB0DefaultInterruptHandler:
  2695                           	opt callstack 0
  2696                           
  2697 ;; *************** function _ECAN_RXB1I_ISR *****************
  2698 ;; Defined at:
  2699 ;;		line 515 in file "mcc_generated_files/ecan.c"
  2700 ;; Parameters:    Size  Location     Type
  2701 ;;		None
  2702 ;; Auto vars:     Size  Location     Type
  2703 ;;		None
  2704 ;; Return value:  Size  Location     Type
  2705 ;;                  1    wreg      void 
  2706 ;; Registers used:
  2707 ;;		wreg, pclath, tosl, cstack
  2708 ;; Tracked objects:
  2709 ;;		On entry : 0/0
  2710 ;;		On exit  : 0/0
  2711 ;;		Unchanged: 0/0
  2712 ;; Data sizes:     COMRAM   BANK0   BANK1   BANK2   BANK3   BANK4   BANK5   BANK6   BANK7   BANK8   BANK9  BANK10  BANK1
      +1  BANK12  BANK13  BANK14
  2713 ;;      Params:         0       0       0       0       0       0       0       0       0       0       0       0       
      +0       0       0       0
  2714 ;;      Locals:         0       0       0       0       0       0       0       0       0       0       0       0       
      +0       0       0       0
  2715 ;;      Temps:          0       0       0       0       0       0       0       0       0       0       0       0       
      +0       0       0       0
  2716 ;;      Totals:         0       0       0       0       0       0       0       0       0       0       0       0       
      +0       0       0       0
  2717 ;;Total ram usage:        0 bytes
  2718 ;; Hardware stack levels used:    1
  2719 ;; Hardware stack levels required when called:    5
  2720 ;; This function calls:
  2721 ;;		Absolute function
  2722 ;;		_RXB1DefaultInterruptHandler
  2723 ;; This function is called by:
  2724 ;;		_INTERRUPT_InterruptManagerLow
  2725 ;; This function uses a non-reentrant model
  2726 ;;
  2727                           
  2728                           	psect	text35
  2729  0006E4                     __ptext35:
  2730                           	opt callstack 0
  2731  0006E4                     _ECAN_RXB1I_ISR:
  2732                           	opt callstack 21
  2733  0006E4                     
  2734                           ;mcc_generated_files/ecan.c: 517:     RXB1InterruptHandler();
  2735  0006E4  D802               	call	i1u19_28
  2736  0006E6  EF7F  F003         	goto	i1u19_29
  2737  0006EA                     i1u19_28:
  2738  0006EA  0005               	push	
  2739  0006EC  6EFA               	movwf	pclath,c
  2740  0006EE  5031               	movf	_RXB1InterruptHandler^0,w,c
  2741  0006F0  6EFD               	movwf	tosl,c
  2742  0006F2  5032               	movf	(_RXB1InterruptHandler+1)^0,w,c
  2743  0006F4  6EFE               	movwf	tosh,c
  2744  0006F6  50F8               	movf	tblptru,w,c
  2745  0006F8  6EFF               	movwf	tosu,c
  2746  0006FA  50FA               	movf	pclath,w,c
  2747  0006FC  0012               	return		;indir
  2748  0006FE                     i1u19_29:
  2749  0006FE                     
  2750                           ;mcc_generated_files/ecan.c: 518:     PIR5bits.RXB1IF = 0;
  2751  0006FE  9277               	bcf	119,1,c	;volatile
  2752  000700  0012               	return		;funcret
  2753  000702                     __end_of_ECAN_RXB1I_ISR:
  2754                           	opt callstack 0
  2755                           
  2756 ;; *************** function _RXB1DefaultInterruptHandler *****************
  2757 ;; Defined at:
  2758 ;;		line 77 in file "mcc_generated_files/ecan.c"
  2759 ;; Parameters:    Size  Location     Type
  2760 ;;		None
  2761 ;; Auto vars:     Size  Location     Type
  2762 ;;		None
  2763 ;; Return value:  Size  Location     Type
  2764 ;;                  1    wreg      void 
  2765 ;; Registers used:
  2766 ;;		None
  2767 ;; Tracked objects:
  2768 ;;		On entry : 0/0
  2769 ;;		On exit  : 0/0
  2770 ;;		Unchanged: 0/0
  2771 ;; Data sizes:     COMRAM   BANK0   BANK1   BANK2   BANK3   BANK4   BANK5   BANK6   BANK7   BANK8   BANK9  BANK10  BANK1
      +1  BANK12  BANK13  BANK14
  2772 ;;      Params:         0       0       0       0       0       0       0       0       0       0       0       0       
      +0       0       0       0
  2773 ;;      Locals:         0       0       0       0       0       0       0       0       0       0       0       0       
      +0       0       0       0
  2774 ;;      Temps:          0       0       0       0       0       0       0       0       0       0       0       0       
      +0       0       0       0
  2775 ;;      Totals:         0       0       0       0       0       0       0       0       0       0       0       0       
      +0       0       0       0
  2776 ;;Total ram usage:        0 bytes
  2777 ;; Hardware stack levels used:    1
  2778 ;; Hardware stack levels required when called:    4
  2779 ;; This function calls:
  2780 ;;		Nothing
  2781 ;; This function is called by:
  2782 ;;		_ECAN_Initialize
  2783 ;;		_ECAN_RXB1I_ISR
  2784 ;; This function uses a non-reentrant model
  2785 ;;
  2786                           
  2787                           	psect	text36
  2788  000876                     __ptext36:
  2789                           	opt callstack 0
  2790  000876                     _RXB1DefaultInterruptHandler:
  2791                           	opt callstack 21
  2792  000876  0012               	return		;funcret
  2793  000878                     __end_of_RXB1DefaultInterruptHandler:
  2794                           	opt callstack 0
  2795                           
  2796 ;; *************** function _ECAN_RXB0I_ISR *****************
  2797 ;; Defined at:
  2798 ;;		line 504 in file "mcc_generated_files/ecan.c"
  2799 ;; Parameters:    Size  Location     Type
  2800 ;;		None
  2801 ;; Auto vars:     Size  Location     Type
  2802 ;;		None
  2803 ;; Return value:  Size  Location     Type
  2804 ;;                  1    wreg      void 
  2805 ;; Registers used:
  2806 ;;		wreg, pclath, tosl, cstack
  2807 ;; Tracked objects:
  2808 ;;		On entry : 0/0
  2809 ;;		On exit  : 0/0
  2810 ;;		Unchanged: 0/0
  2811 ;; Data sizes:     COMRAM   BANK0   BANK1   BANK2   BANK3   BANK4   BANK5   BANK6   BANK7   BANK8   BANK9  BANK10  BANK1
      +1  BANK12  BANK13  BANK14
  2812 ;;      Params:         0       0       0       0       0       0       0       0       0       0       0       0       
      +0       0       0       0
  2813 ;;      Locals:         0       0       0       0       0       0       0       0       0       0       0       0       
      +0       0       0       0
  2814 ;;      Temps:          0       0       0       0       0       0       0       0       0       0       0       0       
      +0       0       0       0
  2815 ;;      Totals:         0       0       0       0       0       0       0       0       0       0       0       0       
      +0       0       0       0
  2816 ;;Total ram usage:        0 bytes
  2817 ;; Hardware stack levels used:    1
  2818 ;; Hardware stack levels required when called:    5
  2819 ;; This function calls:
  2820 ;;		Absolute function
  2821 ;;		_RXB0DefaultInterruptHandler
  2822 ;; This function is called by:
  2823 ;;		_INTERRUPT_InterruptManagerLow
  2824 ;; This function uses a non-reentrant model
  2825 ;;
  2826                           
  2827                           	psect	text37
  2828  000702                     __ptext37:
  2829                           	opt callstack 0
  2830  000702                     _ECAN_RXB0I_ISR:
  2831                           	opt callstack 21
  2832  000702                     
  2833                           ;mcc_generated_files/ecan.c: 506:     RXB0InterruptHandler();
  2834  000702  D802               	call	i1u21_28
  2835  000704  EF8E  F003         	goto	i1u21_29
  2836  000708                     i1u21_28:
  2837  000708  0005               	push	
  2838  00070A  6EFA               	movwf	pclath,c
  2839  00070C  5033               	movf	_RXB0InterruptHandler^0,w,c
  2840  00070E  6EFD               	movwf	tosl,c
  2841  000710  5034               	movf	(_RXB0InterruptHandler+1)^0,w,c
  2842  000712  6EFE               	movwf	tosh,c
  2843  000714  50F8               	movf	tblptru,w,c
  2844  000716  6EFF               	movwf	tosu,c
  2845  000718  50FA               	movf	pclath,w,c
  2846  00071A  0012               	return		;indir
  2847  00071C                     i1u21_29:
  2848  00071C                     
  2849                           ;mcc_generated_files/ecan.c: 507:     PIR5bits.RXB0IF = 0;
  2850  00071C  9077               	bcf	119,0,c	;volatile
  2851  00071E  0012               	return		;funcret
  2852  000720                     __end_of_ECAN_RXB0I_ISR:
  2853                           	opt callstack 0
  2854                           
  2855 ;; *************** function _RXB0DefaultInterruptHandler *****************
  2856 ;; Defined at:
  2857 ;;		line 76 in file "mcc_generated_files/ecan.c"
  2858 ;; Parameters:    Size  Location     Type
  2859 ;;		None
  2860 ;; Auto vars:     Size  Location     Type
  2861 ;;		None
  2862 ;; Return value:  Size  Location     Type
  2863 ;;                  1    wreg      void 
  2864 ;; Registers used:
  2865 ;;		None
  2866 ;; Tracked objects:
  2867 ;;		On entry : 0/0
  2868 ;;		On exit  : 0/0
  2869 ;;		Unchanged: 0/0
  2870 ;; Data sizes:     COMRAM   BANK0   BANK1   BANK2   BANK3   BANK4   BANK5   BANK6   BANK7   BANK8   BANK9  BANK10  BANK1
      +1  BANK12  BANK13  BANK14
  2871 ;;      Params:         0       0       0       0       0       0       0       0       0       0       0       0       
      +0       0       0       0
  2872 ;;      Locals:         0       0       0       0       0       0       0       0       0       0       0       0       
      +0       0       0       0
  2873 ;;      Temps:          0       0       0       0       0       0       0       0       0       0       0       0       
      +0       0       0       0
  2874 ;;      Totals:         0       0       0       0       0       0       0       0       0       0       0       0       
      +0       0       0       0
  2875 ;;Total ram usage:        0 bytes
  2876 ;; Hardware stack levels used:    1
  2877 ;; Hardware stack levels required when called:    4
  2878 ;; This function calls:
  2879 ;;		Nothing
  2880 ;; This function is called by:
  2881 ;;		_ECAN_Initialize
  2882 ;;		_ECAN_RXB0I_ISR
  2883 ;; This function uses a non-reentrant model
  2884 ;;
  2885                           
  2886                           	psect	text38
  2887  000878                     __ptext38:
  2888                           	opt callstack 0
  2889  000878                     _RXB0DefaultInterruptHandler:
  2890                           	opt callstack 21
  2891  000878  0012               	return		;funcret
  2892  00087A                     __end_of_RXB0DefaultInterruptHandler:
  2893                           	opt callstack 0
  2894                           
  2895 ;; *************** function _ECAN_IRXI_ISR *****************
  2896 ;; Defined at:
  2897 ;;		line 647 in file "mcc_generated_files/ecan.c"
  2898 ;; Parameters:    Size  Location     Type
  2899 ;;		None
  2900 ;; Auto vars:     Size  Location     Type
  2901 ;;		None
  2902 ;; Return value:  Size  Location     Type
  2903 ;;                  1    wreg      void 
  2904 ;; Registers used:
  2905 ;;		wreg, pclath, tosl, cstack
  2906 ;; Tracked objects:
  2907 ;;		On entry : 0/0
  2908 ;;		On exit  : 0/0
  2909 ;;		Unchanged: 0/0
  2910 ;; Data sizes:     COMRAM   BANK0   BANK1   BANK2   BANK3   BANK4   BANK5   BANK6   BANK7   BANK8   BANK9  BANK10  BANK1
      +1  BANK12  BANK13  BANK14
  2911 ;;      Params:         0       0       0       0       0       0       0       0       0       0       0       0       
      +0       0       0       0
  2912 ;;      Locals:         0       0       0       0       0       0       0       0       0       0       0       0       
      +0       0       0       0
  2913 ;;      Temps:          0       0       0       0       0       0       0       0       0       0       0       0       
      +0       0       0       0
  2914 ;;      Totals:         0       0       0       0       0       0       0       0       0       0       0       0       
      +0       0       0       0
  2915 ;;Total ram usage:        0 bytes
  2916 ;; Hardware stack levels used:    1
  2917 ;; Hardware stack levels required when called:    5
  2918 ;; This function calls:
  2919 ;;		Absolute function
  2920 ;;		_MessageErrorDefaultInterruptHandler
  2921 ;; This function is called by:
  2922 ;;		_INTERRUPT_InterruptManagerLow
  2923 ;; This function uses a non-reentrant model
  2924 ;;
  2925                           
  2926                           	psect	text39
  2927  000720                     __ptext39:
  2928                           	opt callstack 0
  2929  000720                     _ECAN_IRXI_ISR:
  2930                           	opt callstack 21
  2931  000720                     
  2932                           ;mcc_generated_files/ecan.c: 649:     MessageErrorInterruptHandler();
  2933  000720  D802               	call	i1u20_28
  2934  000722  EF9D  F003         	goto	i1u20_29
  2935  000726                     i1u20_28:
  2936  000726  0005               	push	
  2937  000728  6EFA               	movwf	pclath,c
  2938  00072A  5019               	movf	_MessageErrorInterruptHandler^0,w,c
  2939  00072C  6EFD               	movwf	tosl,c
  2940  00072E  501A               	movf	(_MessageErrorInterruptHandler+1)^0,w,c
  2941  000730  6EFE               	movwf	tosh,c
  2942  000732  50F8               	movf	tblptru,w,c
  2943  000734  6EFF               	movwf	tosu,c
  2944  000736  50FA               	movf	pclath,w,c
  2945  000738  0012               	return		;indir
  2946  00073A                     i1u20_29:
  2947  00073A                     
  2948                           ;mcc_generated_files/ecan.c: 650:     PIR5bits.IRXIF = 0;
  2949  00073A  9E77               	bcf	119,7,c	;volatile
  2950  00073C  0012               	return		;funcret
  2951  00073E                     __end_of_ECAN_IRXI_ISR:
  2952                           	opt callstack 0
  2953                           
  2954 ;; *************** function _MessageErrorDefaultInterruptHandler *****************
  2955 ;; Defined at:
  2956 ;;		line 89 in file "mcc_generated_files/ecan.c"
  2957 ;; Parameters:    Size  Location     Type
  2958 ;;		None
  2959 ;; Auto vars:     Size  Location     Type
  2960 ;;		None
  2961 ;; Return value:  Size  Location     Type
  2962 ;;                  1    wreg      void 
  2963 ;; Registers used:
  2964 ;;		None
  2965 ;; Tracked objects:
  2966 ;;		On entry : 0/0
  2967 ;;		On exit  : 0/0
  2968 ;;		Unchanged: 0/0
  2969 ;; Data sizes:     COMRAM   BANK0   BANK1   BANK2   BANK3   BANK4   BANK5   BANK6   BANK7   BANK8   BANK9  BANK10  BANK1
      +1  BANK12  BANK13  BANK14
  2970 ;;      Params:         0       0       0       0       0       0       0       0       0       0       0       0       
      +0       0       0       0
  2971 ;;      Locals:         0       0       0       0       0       0       0       0       0       0       0       0       
      +0       0       0       0
  2972 ;;      Temps:          0       0       0       0       0       0       0       0       0       0       0       0       
      +0       0       0       0
  2973 ;;      Totals:         0       0       0       0       0       0       0       0       0       0       0       0       
      +0       0       0       0
  2974 ;;Total ram usage:        0 bytes
  2975 ;; Hardware stack levels used:    1
  2976 ;; Hardware stack levels required when called:    4
  2977 ;; This function calls:
  2978 ;;		Nothing
  2979 ;; This function is called by:
  2980 ;;		_ECAN_Initialize
  2981 ;;		_ECAN_IRXI_ISR
  2982 ;; This function uses a non-reentrant model
  2983 ;;
  2984                           
  2985                           	psect	text40
  2986  00087A                     __ptext40:
  2987                           	opt callstack 0
  2988  00087A                     _MessageErrorDefaultInterruptHandler:
  2989                           	opt callstack 21
  2990  00087A  0012               	return		;funcret
  2991  00087C                     __end_of_MessageErrorDefaultInterruptHandler:
  2992                           	opt callstack 0
  2993                           
  2994 ;; *************** function _ECAN_ERRI_ISR *****************
  2995 ;; Defined at:
  2996 ;;		line 589 in file "mcc_generated_files/ecan.c"
  2997 ;; Parameters:    Size  Location     Type
  2998 ;;		None
  2999 ;; Auto vars:     Size  Location     Type
  3000 ;;		None
  3001 ;; Return value:  Size  Location     Type
  3002 ;;                  1    wreg      void 
  3003 ;; Registers used:
  3004 ;;		wreg, pclath, tosl, cstack
  3005 ;; Tracked objects:
  3006 ;;		On entry : 0/0
  3007 ;;		On exit  : 0/0
  3008 ;;		Unchanged: 0/0
  3009 ;; Data sizes:     COMRAM   BANK0   BANK1   BANK2   BANK3   BANK4   BANK5   BANK6   BANK7   BANK8   BANK9  BANK10  BANK1
      +1  BANK12  BANK13  BANK14
  3010 ;;      Params:         0       0       0       0       0       0       0       0       0       0       0       0       
      +0       0       0       0
  3011 ;;      Locals:         0       0       0       0       0       0       0       0       0       0       0       0       
      +0       0       0       0
  3012 ;;      Temps:          0       0       0       0       0       0       0       0       0       0       0       0       
      +0       0       0       0
  3013 ;;      Totals:         0       0       0       0       0       0       0       0       0       0       0       0       
      +0       0       0       0
  3014 ;;Total ram usage:        0 bytes
  3015 ;; Hardware stack levels used:    1
  3016 ;; Hardware stack levels required when called:    5
  3017 ;; This function calls:
  3018 ;;		Absolute function
  3019 ;;		_BusOffDefaultHandler
  3020 ;;		_RXB0OverflowDefaultHandler
  3021 ;;		_RXB1OverflowDefaultHandler
  3022 ;;		_RXPassiveDefaultHandler
  3023 ;;		_RXWarningDefaultHandler
  3024 ;;		_TXPassiveDefaultHandler
  3025 ;;		_TXWarningDefaultHandler
  3026 ;; This function is called by:
  3027 ;;		_INTERRUPT_InterruptManagerLow
  3028 ;; This function uses a non-reentrant model
  3029 ;;
  3030                           
  3031                           	psect	text41
  3032  0002F4                     __ptext41:
  3033                           	opt callstack 0
  3034  0002F4                     _ECAN_ERRI_ISR:
  3035                           	opt callstack 21
  3036  0002F4                     
  3037                           ;mcc_generated_files/ecan.c: 591:     if (COMSTATbits.RXB0OVFL)
  3038  0002F4  AE71               	btfss	113,7,c	;volatile
  3039  0002F6  EF7F  F001         	goto	i1u5_21
  3040  0002FA  EF81  F001         	goto	i1u5_20
  3041  0002FE                     i1u5_21:
  3042  0002FE  EF8F  F001         	goto	i1l1573
  3043  000302                     i1u5_20:
  3044  000302                     
  3045                           ;mcc_generated_files/ecan.c: 592:     {;mcc_generated_files/ecan.c: 593:         RXB0Ove
      +                          rflowHandler();
  3046  000302  D802               	call	i1u6_28
  3047  000304  EF8E  F001         	goto	i1u6_29
  3048  000308                     i1u6_28:
  3049  000308  0005               	push	
  3050  00030A  6EFA               	movwf	pclath,c
  3051  00030C  5029               	movf	_RXB0OverflowHandler^0,w,c
  3052  00030E  6EFD               	movwf	tosl,c
  3053  000310  502A               	movf	(_RXB0OverflowHandler+1)^0,w,c
  3054  000312  6EFE               	movwf	tosh,c
  3055  000314  50F8               	movf	tblptru,w,c
  3056  000316  6EFF               	movwf	tosu,c
  3057  000318  50FA               	movf	pclath,w,c
  3058  00031A  0012               	return		;indir
  3059  00031C                     i1u6_29:
  3060  00031C                     
  3061                           ;mcc_generated_files/ecan.c: 594:         COMSTATbits.RXB0OVFL = 0;
  3062  00031C  9E71               	bcf	113,7,c	;volatile
  3063  00031E                     i1l1573:
  3064                           
  3065                           ;mcc_generated_files/ecan.c: 597:     if (COMSTATbits.RXB1OVFL)
  3066  00031E  AC71               	btfss	113,6,c	;volatile
  3067  000320  EF94  F001         	goto	i1u7_21
  3068  000324  EF96  F001         	goto	i1u7_20
  3069  000328                     i1u7_21:
  3070  000328  EFA4  F001         	goto	i1l1579
  3071  00032C                     i1u7_20:
  3072  00032C                     
  3073                           ;mcc_generated_files/ecan.c: 598:     {;mcc_generated_files/ecan.c: 599:         RXB1Ove
      +                          rflowHandler();
  3074  00032C  D802               	call	i1u8_28
  3075  00032E  EFA3  F001         	goto	i1u8_29
  3076  000332                     i1u8_28:
  3077  000332  0005               	push	
  3078  000334  6EFA               	movwf	pclath,c
  3079  000336  5027               	movf	_RXB1OverflowHandler^0,w,c
  3080  000338  6EFD               	movwf	tosl,c
  3081  00033A  5028               	movf	(_RXB1OverflowHandler+1)^0,w,c
  3082  00033C  6EFE               	movwf	tosh,c
  3083  00033E  50F8               	movf	tblptru,w,c
  3084  000340  6EFF               	movwf	tosu,c
  3085  000342  50FA               	movf	pclath,w,c
  3086  000344  0012               	return		;indir
  3087  000346                     i1u8_29:
  3088  000346                     
  3089                           ;mcc_generated_files/ecan.c: 600:         COMSTATbits.RXB1OVFL = 0;
  3090  000346  9C71               	bcf	113,6,c	;volatile
  3091  000348                     i1l1579:
  3092                           
  3093                           ;mcc_generated_files/ecan.c: 603:     if (COMSTATbits.TXBO)
  3094  000348  AA71               	btfss	113,5,c	;volatile
  3095  00034A  EFA9  F001         	goto	i1u9_21
  3096  00034E  EFAB  F001         	goto	i1u9_20
  3097  000352                     i1u9_21:
  3098  000352  EFB8  F001         	goto	i1l1583
  3099  000356                     i1u9_20:
  3100  000356                     
  3101                           ;mcc_generated_files/ecan.c: 604:     {;mcc_generated_files/ecan.c: 605:         BusOffH
      +                          andler();
  3102  000356  D802               	call	i1u10_28
  3103  000358  EFB8  F001         	goto	i1u10_29
  3104  00035C                     i1u10_28:
  3105  00035C  0005               	push	
  3106  00035E  6EFA               	movwf	pclath,c
  3107  000360  5025               	movf	_BusOffHandler^0,w,c
  3108  000362  6EFD               	movwf	tosl,c
  3109  000364  5026               	movf	(_BusOffHandler+1)^0,w,c
  3110  000366  6EFE               	movwf	tosh,c
  3111  000368  50F8               	movf	tblptru,w,c
  3112  00036A  6EFF               	movwf	tosu,c
  3113  00036C  50FA               	movf	pclath,w,c
  3114  00036E  0012               	return		;indir
  3115  000370                     i1u10_29:
  3116  000370                     i1l1583:
  3117                           
  3118                           ;mcc_generated_files/ecan.c: 608:     if (COMSTATbits.TXBP)
  3119  000370  A871               	btfss	113,4,c	;volatile
  3120  000372  EFBD  F001         	goto	i1u11_21
  3121  000376  EFBF  F001         	goto	i1u11_20
  3122  00037A                     i1u11_21:
  3123  00037A  EFCC  F001         	goto	i1l1587
  3124  00037E                     i1u11_20:
  3125  00037E                     
  3126                           ;mcc_generated_files/ecan.c: 609:     {;mcc_generated_files/ecan.c: 610:         TXPassi
      +                          veHandler();
  3127  00037E  D802               	call	i1u12_28
  3128  000380  EFCC  F001         	goto	i1u12_29
  3129  000384                     i1u12_28:
  3130  000384  0005               	push	
  3131  000386  6EFA               	movwf	pclath,c
  3132  000388  5023               	movf	_TXPassiveHandler^0,w,c
  3133  00038A  6EFD               	movwf	tosl,c
  3134  00038C  5024               	movf	(_TXPassiveHandler+1)^0,w,c
  3135  00038E  6EFE               	movwf	tosh,c
  3136  000390  50F8               	movf	tblptru,w,c
  3137  000392  6EFF               	movwf	tosu,c
  3138  000394  50FA               	movf	pclath,w,c
  3139  000396  0012               	return		;indir
  3140  000398                     i1u12_29:
  3141  000398                     i1l1587:
  3142                           
  3143                           ;mcc_generated_files/ecan.c: 613:     if (COMSTATbits.RXBP)
  3144  000398  A671               	btfss	113,3,c	;volatile
  3145  00039A  EFD1  F001         	goto	i1u13_21
  3146  00039E  EFD3  F001         	goto	i1u13_20
  3147  0003A2                     i1u13_21:
  3148  0003A2  EFE0  F001         	goto	i1l1591
  3149  0003A6                     i1u13_20:
  3150  0003A6                     
  3151                           ;mcc_generated_files/ecan.c: 614:     {;mcc_generated_files/ecan.c: 615:         RXPassi
      +                          veHandler();
  3152  0003A6  D802               	call	i1u14_28
  3153  0003A8  EFE0  F001         	goto	i1u14_29
  3154  0003AC                     i1u14_28:
  3155  0003AC  0005               	push	
  3156  0003AE  6EFA               	movwf	pclath,c
  3157  0003B0  5021               	movf	_RXPassiveHandler^0,w,c
  3158  0003B2  6EFD               	movwf	tosl,c
  3159  0003B4  5022               	movf	(_RXPassiveHandler+1)^0,w,c
  3160  0003B6  6EFE               	movwf	tosh,c
  3161  0003B8  50F8               	movf	tblptru,w,c
  3162  0003BA  6EFF               	movwf	tosu,c
  3163  0003BC  50FA               	movf	pclath,w,c
  3164  0003BE  0012               	return		;indir
  3165  0003C0                     i1u14_29:
  3166  0003C0                     i1l1591:
  3167                           
  3168                           ;mcc_generated_files/ecan.c: 618:     if (COMSTATbits.TXWARN)
  3169  0003C0  A471               	btfss	113,2,c	;volatile
  3170  0003C2  EFE5  F001         	goto	i1u15_21
  3171  0003C6  EFE7  F001         	goto	i1u15_20
  3172  0003CA                     i1u15_21:
  3173  0003CA  EFF4  F001         	goto	i1l1595
  3174  0003CE                     i1u15_20:
  3175  0003CE                     
  3176                           ;mcc_generated_files/ecan.c: 619:     {;mcc_generated_files/ecan.c: 620:         TXWarni
      +                          ngHandler();
  3177  0003CE  D802               	call	i1u16_28
  3178  0003D0  EFF4  F001         	goto	i1u16_29
  3179  0003D4                     i1u16_28:
  3180  0003D4  0005               	push	
  3181  0003D6  6EFA               	movwf	pclath,c
  3182  0003D8  501F               	movf	_TXWarningHandler^0,w,c
  3183  0003DA  6EFD               	movwf	tosl,c
  3184  0003DC  5020               	movf	(_TXWarningHandler+1)^0,w,c
  3185  0003DE  6EFE               	movwf	tosh,c
  3186  0003E0  50F8               	movf	tblptru,w,c
  3187  0003E2  6EFF               	movwf	tosu,c
  3188  0003E4  50FA               	movf	pclath,w,c
  3189  0003E6  0012               	return		;indir
  3190  0003E8                     i1u16_29:
  3191  0003E8                     i1l1595:
  3192                           
  3193                           ;mcc_generated_files/ecan.c: 623:     if (COMSTATbits.RXWARN)
  3194  0003E8  A271               	btfss	113,1,c	;volatile
  3195  0003EA  EFF9  F001         	goto	i1u17_21
  3196  0003EE  EFFB  F001         	goto	i1u17_20
  3197  0003F2                     i1u17_21:
  3198  0003F2  EF08  F002         	goto	i1l1599
  3199  0003F6                     i1u17_20:
  3200  0003F6                     
  3201                           ;mcc_generated_files/ecan.c: 624:     {;mcc_generated_files/ecan.c: 625:         RXWarni
      +                          ngHandler();
  3202  0003F6  D802               	call	i1u18_28
  3203  0003F8  EF08  F002         	goto	i1u18_29
  3204  0003FC                     i1u18_28:
  3205  0003FC  0005               	push	
  3206  0003FE  6EFA               	movwf	pclath,c
  3207  000400  501D               	movf	_RXWarningHandler^0,w,c
  3208  000402  6EFD               	movwf	tosl,c
  3209  000404  501E               	movf	(_RXWarningHandler+1)^0,w,c
  3210  000406  6EFE               	movwf	tosh,c
  3211  000408  50F8               	movf	tblptru,w,c
  3212  00040A  6EFF               	movwf	tosu,c
  3213  00040C  50FA               	movf	pclath,w,c
  3214  00040E  0012               	return		;indir
  3215  000410                     i1u18_29:
  3216  000410                     i1l1599:
  3217                           
  3218                           ;mcc_generated_files/ecan.c: 628:     PIR5bits.ERRIF = 0;
  3219  000410  9A77               	bcf	119,5,c	;volatile
  3220  000412  0012               	return		;funcret
  3221  000414                     __end_of_ECAN_ERRI_ISR:
  3222                           	opt callstack 0
  3223                           
  3224 ;; *************** function _TXWarningDefaultHandler *****************
  3225 ;; Defined at:
  3226 ;;		line 86 in file "mcc_generated_files/ecan.c"
  3227 ;; Parameters:    Size  Location     Type
  3228 ;;		None
  3229 ;; Auto vars:     Size  Location     Type
  3230 ;;		None
  3231 ;; Return value:  Size  Location     Type
  3232 ;;                  1    wreg      void 
  3233 ;; Registers used:
  3234 ;;		None
  3235 ;; Tracked objects:
  3236 ;;		On entry : 0/0
  3237 ;;		On exit  : 0/0
  3238 ;;		Unchanged: 0/0
  3239 ;; Data sizes:     COMRAM   BANK0   BANK1   BANK2   BANK3   BANK4   BANK5   BANK6   BANK7   BANK8   BANK9  BANK10  BANK1
      +1  BANK12  BANK13  BANK14
  3240 ;;      Params:         0       0       0       0       0       0       0       0       0       0       0       0       
      +0       0       0       0
  3241 ;;      Locals:         0       0       0       0       0       0       0       0       0       0       0       0       
      +0       0       0       0
  3242 ;;      Temps:          0       0       0       0       0       0       0       0       0       0       0       0       
      +0       0       0       0
  3243 ;;      Totals:         0       0       0       0       0       0       0       0       0       0       0       0       
      +0       0       0       0
  3244 ;;Total ram usage:        0 bytes
  3245 ;; Hardware stack levels used:    1
  3246 ;; Hardware stack levels required when called:    4
  3247 ;; This function calls:
  3248 ;;		Nothing
  3249 ;; This function is called by:
  3250 ;;		_ECAN_Initialize
  3251 ;;		_ECAN_ERRI_ISR
  3252 ;; This function uses a non-reentrant model
  3253 ;;
  3254                           
  3255                           	psect	text42
  3256  00087C                     __ptext42:
  3257                           	opt callstack 0
  3258  00087C                     _TXWarningDefaultHandler:
  3259                           	opt callstack 21
  3260  00087C  0012               	return		;funcret
  3261  00087E                     __end_of_TXWarningDefaultHandler:
  3262                           	opt callstack 0
  3263                           
  3264 ;; *************** function _TXPassiveDefaultHandler *****************
  3265 ;; Defined at:
  3266 ;;		line 84 in file "mcc_generated_files/ecan.c"
  3267 ;; Parameters:    Size  Location     Type
  3268 ;;		None
  3269 ;; Auto vars:     Size  Location     Type
  3270 ;;		None
  3271 ;; Return value:  Size  Location     Type
  3272 ;;                  1    wreg      void 
  3273 ;; Registers used:
  3274 ;;		None
  3275 ;; Tracked objects:
  3276 ;;		On entry : 0/0
  3277 ;;		On exit  : 0/0
  3278 ;;		Unchanged: 0/0
  3279 ;; Data sizes:     COMRAM   BANK0   BANK1   BANK2   BANK3   BANK4   BANK5   BANK6   BANK7   BANK8   BANK9  BANK10  BANK1
      +1  BANK12  BANK13  BANK14
  3280 ;;      Params:         0       0       0       0       0       0       0       0       0       0       0       0       
      +0       0       0       0
  3281 ;;      Locals:         0       0       0       0       0       0       0       0       0       0       0       0       
      +0       0       0       0
  3282 ;;      Temps:          0       0       0       0       0       0       0       0       0       0       0       0       
      +0       0       0       0
  3283 ;;      Totals:         0       0       0       0       0       0       0       0       0       0       0       0       
      +0       0       0       0
  3284 ;;Total ram usage:        0 bytes
  3285 ;; Hardware stack levels used:    1
  3286 ;; Hardware stack levels required when called:    4
  3287 ;; This function calls:
  3288 ;;		Nothing
  3289 ;; This function is called by:
  3290 ;;		_ECAN_Initialize
  3291 ;;		_ECAN_ERRI_ISR
  3292 ;; This function uses a non-reentrant model
  3293 ;;
  3294                           
  3295                           	psect	text43
  3296  00087E                     __ptext43:
  3297                           	opt callstack 0
  3298  00087E                     _TXPassiveDefaultHandler:
  3299                           	opt callstack 21
  3300  00087E  0012               	return		;funcret
  3301  000880                     __end_of_TXPassiveDefaultHandler:
  3302                           	opt callstack 0
  3303                           
  3304 ;; *************** function _RXWarningDefaultHandler *****************
  3305 ;; Defined at:
  3306 ;;		line 87 in file "mcc_generated_files/ecan.c"
  3307 ;; Parameters:    Size  Location     Type
  3308 ;;		None
  3309 ;; Auto vars:     Size  Location     Type
  3310 ;;		None
  3311 ;; Return value:  Size  Location     Type
  3312 ;;                  1    wreg      void 
  3313 ;; Registers used:
  3314 ;;		None
  3315 ;; Tracked objects:
  3316 ;;		On entry : 0/0
  3317 ;;		On exit  : 0/0
  3318 ;;		Unchanged: 0/0
  3319 ;; Data sizes:     COMRAM   BANK0   BANK1   BANK2   BANK3   BANK4   BANK5   BANK6   BANK7   BANK8   BANK9  BANK10  BANK1
      +1  BANK12  BANK13  BANK14
  3320 ;;      Params:         0       0       0       0       0       0       0       0       0       0       0       0       
      +0       0       0       0
  3321 ;;      Locals:         0       0       0       0       0       0       0       0       0       0       0       0       
      +0       0       0       0
  3322 ;;      Temps:          0       0       0       0       0       0       0       0       0       0       0       0       
      +0       0       0       0
  3323 ;;      Totals:         0       0       0       0       0       0       0       0       0       0       0       0       
      +0       0       0       0
  3324 ;;Total ram usage:        0 bytes
  3325 ;; Hardware stack levels used:    1
  3326 ;; Hardware stack levels required when called:    4
  3327 ;; This function calls:
  3328 ;;		Nothing
  3329 ;; This function is called by:
  3330 ;;		_ECAN_Initialize
  3331 ;;		_ECAN_ERRI_ISR
  3332 ;; This function uses a non-reentrant model
  3333 ;;
  3334                           
  3335                           	psect	text44
  3336  000880                     __ptext44:
  3337                           	opt callstack 0
  3338  000880                     _RXWarningDefaultHandler:
  3339                           	opt callstack 21
  3340  000880  0012               	return		;funcret
  3341  000882                     __end_of_RXWarningDefaultHandler:
  3342                           	opt callstack 0
  3343                           
  3344 ;; *************** function _RXPassiveDefaultHandler *****************
  3345 ;; Defined at:
  3346 ;;		line 85 in file "mcc_generated_files/ecan.c"
  3347 ;; Parameters:    Size  Location     Type
  3348 ;;		None
  3349 ;; Auto vars:     Size  Location     Type
  3350 ;;		None
  3351 ;; Return value:  Size  Location     Type
  3352 ;;                  1    wreg      void 
  3353 ;; Registers used:
  3354 ;;		None
  3355 ;; Tracked objects:
  3356 ;;		On entry : 0/0
  3357 ;;		On exit  : 0/0
  3358 ;;		Unchanged: 0/0
  3359 ;; Data sizes:     COMRAM   BANK0   BANK1   BANK2   BANK3   BANK4   BANK5   BANK6   BANK7   BANK8   BANK9  BANK10  BANK1
      +1  BANK12  BANK13  BANK14
  3360 ;;      Params:         0       0       0       0       0       0       0       0       0       0       0       0       
      +0       0       0       0
  3361 ;;      Locals:         0       0       0       0       0       0       0       0       0       0       0       0       
      +0       0       0       0
  3362 ;;      Temps:          0       0       0       0       0       0       0       0       0       0       0       0       
      +0       0       0       0
  3363 ;;      Totals:         0       0       0       0       0       0       0       0       0       0       0       0       
      +0       0       0       0
  3364 ;;Total ram usage:        0 bytes
  3365 ;; Hardware stack levels used:    1
  3366 ;; Hardware stack levels required when called:    4
  3367 ;; This function calls:
  3368 ;;		Nothing
  3369 ;; This function is called by:
  3370 ;;		_ECAN_Initialize
  3371 ;;		_ECAN_ERRI_ISR
  3372 ;; This function uses a non-reentrant model
  3373 ;;
  3374                           
  3375                           	psect	text45
  3376  000882                     __ptext45:
  3377                           	opt callstack 0
  3378  000882                     _RXPassiveDefaultHandler:
  3379                           	opt callstack 21
  3380  000882  0012               	return		;funcret
  3381  000884                     __end_of_RXPassiveDefaultHandler:
  3382                           	opt callstack 0
  3383                           
  3384 ;; *************** function _RXB1OverflowDefaultHandler *****************
  3385 ;; Defined at:
  3386 ;;		line 82 in file "mcc_generated_files/ecan.c"
  3387 ;; Parameters:    Size  Location     Type
  3388 ;;		None
  3389 ;; Auto vars:     Size  Location     Type
  3390 ;;		None
  3391 ;; Return value:  Size  Location     Type
  3392 ;;                  1    wreg      void 
  3393 ;; Registers used:
  3394 ;;		None
  3395 ;; Tracked objects:
  3396 ;;		On entry : 0/0
  3397 ;;		On exit  : 0/0
  3398 ;;		Unchanged: 0/0
  3399 ;; Data sizes:     COMRAM   BANK0   BANK1   BANK2   BANK3   BANK4   BANK5   BANK6   BANK7   BANK8   BANK9  BANK10  BANK1
      +1  BANK12  BANK13  BANK14
  3400 ;;      Params:         0       0       0       0       0       0       0       0       0       0       0       0       
      +0       0       0       0
  3401 ;;      Locals:         0       0       0       0       0       0       0       0       0       0       0       0       
      +0       0       0       0
  3402 ;;      Temps:          0       0       0       0       0       0       0       0       0       0       0       0       
      +0       0       0       0
  3403 ;;      Totals:         0       0       0       0       0       0       0       0       0       0       0       0       
      +0       0       0       0
  3404 ;;Total ram usage:        0 bytes
  3405 ;; Hardware stack levels used:    1
  3406 ;; Hardware stack levels required when called:    4
  3407 ;; This function calls:
  3408 ;;		Nothing
  3409 ;; This function is called by:
  3410 ;;		_ECAN_Initialize
  3411 ;;		_ECAN_ERRI_ISR
  3412 ;; This function uses a non-reentrant model
  3413 ;;
  3414                           
  3415                           	psect	text46
  3416  000884                     __ptext46:
  3417                           	opt callstack 0
  3418  000884                     _RXB1OverflowDefaultHandler:
  3419                           	opt callstack 21
  3420  000884  0012               	return		;funcret
  3421  000886                     __end_of_RXB1OverflowDefaultHandler:
  3422                           	opt callstack 0
  3423                           
  3424 ;; *************** function _RXB0OverflowDefaultHandler *****************
  3425 ;; Defined at:
  3426 ;;		line 81 in file "mcc_generated_files/ecan.c"
  3427 ;; Parameters:    Size  Location     Type
  3428 ;;		None
  3429 ;; Auto vars:     Size  Location     Type
  3430 ;;		None
  3431 ;; Return value:  Size  Location     Type
  3432 ;;                  1    wreg      void 
  3433 ;; Registers used:
  3434 ;;		None
  3435 ;; Tracked objects:
  3436 ;;		On entry : 0/0
  3437 ;;		On exit  : 0/0
  3438 ;;		Unchanged: 0/0
  3439 ;; Data sizes:     COMRAM   BANK0   BANK1   BANK2   BANK3   BANK4   BANK5   BANK6   BANK7   BANK8   BANK9  BANK10  BANK1
      +1  BANK12  BANK13  BANK14
  3440 ;;      Params:         0       0       0       0       0       0       0       0       0       0       0       0       
      +0       0       0       0
  3441 ;;      Locals:         0       0       0       0       0       0       0       0       0       0       0       0       
      +0       0       0       0
  3442 ;;      Temps:          0       0       0       0       0       0       0       0       0       0       0       0       
      +0       0       0       0
  3443 ;;      Totals:         0       0       0       0       0       0       0       0       0       0       0       0       
      +0       0       0       0
  3444 ;;Total ram usage:        0 bytes
  3445 ;; Hardware stack levels used:    1
  3446 ;; Hardware stack levels required when called:    4
  3447 ;; This function calls:
  3448 ;;		Nothing
  3449 ;; This function is called by:
  3450 ;;		_ECAN_Initialize
  3451 ;;		_ECAN_ERRI_ISR
  3452 ;; This function uses a non-reentrant model
  3453 ;;
  3454                           
  3455                           	psect	text47
  3456  000886                     __ptext47:
  3457                           	opt callstack 0
  3458  000886                     _RXB0OverflowDefaultHandler:
  3459                           	opt callstack 21
  3460  000886  0012               	return		;funcret
  3461  000888                     __end_of_RXB0OverflowDefaultHandler:
  3462                           	opt callstack 0
  3463                           
  3464 ;; *************** function _BusOffDefaultHandler *****************
  3465 ;; Defined at:
  3466 ;;		line 83 in file "mcc_generated_files/ecan.c"
  3467 ;; Parameters:    Size  Location     Type
  3468 ;;		None
  3469 ;; Auto vars:     Size  Location     Type
  3470 ;;		None
  3471 ;; Return value:  Size  Location     Type
  3472 ;;                  1    wreg      void 
  3473 ;; Registers used:
  3474 ;;		None
  3475 ;; Tracked objects:
  3476 ;;		On entry : 0/0
  3477 ;;		On exit  : 0/0
  3478 ;;		Unchanged: 0/0
  3479 ;; Data sizes:     COMRAM   BANK0   BANK1   BANK2   BANK3   BANK4   BANK5   BANK6   BANK7   BANK8   BANK9  BANK10  BANK1
      +1  BANK12  BANK13  BANK14
  3480 ;;      Params:         0       0       0       0       0       0       0       0       0       0       0       0       
      +0       0       0       0
  3481 ;;      Locals:         0       0       0       0       0       0       0       0       0       0       0       0       
      +0       0       0       0
  3482 ;;      Temps:          0       0       0       0       0       0       0       0       0       0       0       0       
      +0       0       0       0
  3483 ;;      Totals:         0       0       0       0       0       0       0       0       0       0       0       0       
      +0       0       0       0
  3484 ;;Total ram usage:        0 bytes
  3485 ;; Hardware stack levels used:    1
  3486 ;; Hardware stack levels required when called:    4
  3487 ;; This function calls:
  3488 ;;		Nothing
  3489 ;; This function is called by:
  3490 ;;		_ECAN_Initialize
  3491 ;;		_ECAN_ERRI_ISR
  3492 ;; This function uses a non-reentrant model
  3493 ;;
  3494                           
  3495                           	psect	text48
  3496  000888                     __ptext48:
  3497                           	opt callstack 0
  3498  000888                     _BusOffDefaultHandler:
  3499                           	opt callstack 21
  3500  000888  0012               	return		;funcret
  3501  00088A                     __end_of_BusOffDefaultHandler:
  3502                           	opt callstack 0
  3503                           
  3504 ;; *************** function _INTERRUPT_InterruptManagerHigh *****************
  3505 ;; Defined at:
  3506 ;;		line 92 in file "mcc_generated_files/interrupt_manager.c"
  3507 ;; Parameters:    Size  Location     Type
  3508 ;;		None
  3509 ;; Auto vars:     Size  Location     Type
  3510 ;;		None
  3511 ;; Return value:  Size  Location     Type
  3512 ;;                  1    wreg      void 
  3513 ;; Registers used:
  3514 ;;		wreg, fsr2l, fsr2h, status,2, status,0, pclath, tosl, cstack
  3515 ;; Tracked objects:
  3516 ;;		On entry : 0/0
  3517 ;;		On exit  : 0/0
  3518 ;;		Unchanged: 0/0
  3519 ;; Data sizes:     COMRAM   BANK0   BANK1   BANK2   BANK3   BANK4   BANK5   BANK6   BANK7   BANK8   BANK9  BANK10  BANK1
      +1  BANK12  BANK13  BANK14
  3520 ;;      Params:         0       0       0       0       0       0       0       0       0       0       0       0       
      +0       0       0       0
  3521 ;;      Locals:         0       0       0       0       0       0       0       0       0       0       0       0       
      +0       0       0       0
  3522 ;;      Temps:          4       0       0       0       0       0       0       0       0       0       0       0       
      +0       0       0       0
  3523 ;;      Totals:         4       0       0       0       0       0       0       0       0       0       0       0       
      +0       0       0       0
  3524 ;;Total ram usage:        4 bytes
  3525 ;; Hardware stack levels used:    1
  3526 ;; Hardware stack levels required when called:    3
  3527 ;; This function calls:
  3528 ;;		Absolute function
  3529 ;;		_EUSART1_Receive_ISR
  3530 ;;		_EUSART1_Transmit_ISR
  3531 ;; This function is called by:
  3532 ;;		Interrupt level 2
  3533 ;; This function uses a non-reentrant model
  3534 ;;
  3535                           
  3536                           	psect	intcode
  3537  000008                     __pintcode:
  3538                           	opt callstack 0
  3539  000008                     _INTERRUPT_InterruptManagerHigh:
  3540                           	opt callstack 21
  3541                           
  3542                           ;incstack = 0
  3543  000008  8251               	bsf	int$flags,1,c	;set compiler interrupt flag (level 2)
  3544  00000A  EF68  F002         	goto	int_func
  3545                           
  3546                           	psect	intcode_body
  3547  0004D0                     __pintcode_body:
  3548                           	opt callstack 21
  3549  0004D0                     int_func:
  3550                           	opt callstack 21
  3551  0004D0  CFFA F046          	movff	pclath,??_INTERRUPT_InterruptManagerHigh
  3552  0004D4  CFFB F047          	movff	pclatu,??_INTERRUPT_InterruptManagerHigh+1
  3553  0004D8  CFD9 F048          	movff	fsr2l,??_INTERRUPT_InterruptManagerHigh+2
  3554  0004DC  CFDA F049          	movff	fsr2h,??_INTERRUPT_InterruptManagerHigh+3
  3555  0004E0                     
  3556                           ;mcc_generated_files/interrupt_manager.c: 95:     if(PIE1bits.TX1IE == 1 && PIR1bits.TX1
      +                          IF == 1)
  3557  0004E0  A89D               	btfss	157,4,c	;volatile
  3558  0004E2  EF75  F002         	goto	i2u89_41
  3559  0004E6  EF77  F002         	goto	i2u89_40
  3560  0004EA                     i2u89_41:
  3561  0004EA  EF8D  F002         	goto	i2l42
  3562  0004EE                     i2u89_40:
  3563  0004EE  A89E               	btfss	158,4,c	;volatile
  3564  0004F0  EF7C  F002         	goto	i2u90_41
  3565  0004F4  EF7E  F002         	goto	i2u90_40
  3566  0004F8                     i2u90_41:
  3567  0004F8  EF8D  F002         	goto	i2l42
  3568  0004FC                     i2u90_40:
  3569  0004FC                     
  3570                           ;mcc_generated_files/interrupt_manager.c: 96:     {;mcc_generated_files/interrupt_manage
      +                          r.c: 97:         EUSART1_TxDefaultInterruptHandler();
  3571  0004FC  D802               	call	i2u91_48
  3572  0004FE  EF8B  F002         	goto	i2u91_49
  3573  000502                     i2u91_48:
  3574  000502  0005               	push	
  3575  000504  6EFA               	movwf	pclath,c
  3576  000506  5043               	movf	_EUSART1_TxDefaultInterruptHandler^0,w,c
  3577  000508  6EFD               	movwf	tosl,c
  3578  00050A  5044               	movf	(_EUSART1_TxDefaultInterruptHandler+1)^0,w,c
  3579  00050C  6EFE               	movwf	tosh,c
  3580  00050E  50F8               	movf	tblptru,w,c
  3581  000510  6EFF               	movwf	tosu,c
  3582  000512  50FA               	movf	pclath,w,c
  3583  000514  0012               	return		;indir
  3584  000516                     i2u91_49:
  3585                           
  3586                           ;mcc_generated_files/interrupt_manager.c: 98:     }
  3587  000516  EFA8  F002         	goto	i2l46
  3588  00051A                     i2l42:
  3589  00051A  AA9D               	btfss	157,5,c	;volatile
  3590  00051C  EF92  F002         	goto	i2u92_41
  3591  000520  EF94  F002         	goto	i2u92_40
  3592  000524                     i2u92_41:
  3593  000524  EFA8  F002         	goto	i2l46
  3594  000528                     i2u92_40:
  3595  000528  AA9E               	btfss	158,5,c	;volatile
  3596  00052A  EF99  F002         	goto	i2u93_41
  3597  00052E  EF9B  F002         	goto	i2u93_40
  3598  000532                     i2u93_41:
  3599  000532  EFA8  F002         	goto	i2l46
  3600  000536                     i2u93_40:
  3601  000536                     
  3602                           ;mcc_generated_files/interrupt_manager.c: 100:     {;mcc_generated_files/interrupt_manag
      +                          er.c: 101:         EUSART1_RxDefaultInterruptHandler();
  3603  000536  D802               	call	i2u94_48
  3604  000538  EFA8  F002         	goto	i2u94_49
  3605  00053C                     i2u94_48:
  3606  00053C  0005               	push	
  3607  00053E  6EFA               	movwf	pclath,c
  3608  000540  5041               	movf	_EUSART1_RxDefaultInterruptHandler^0,w,c
  3609  000542  6EFD               	movwf	tosl,c
  3610  000544  5042               	movf	(_EUSART1_RxDefaultInterruptHandler+1)^0,w,c
  3611  000546  6EFE               	movwf	tosh,c
  3612  000548  50F8               	movf	tblptru,w,c
  3613  00054A  6EFF               	movwf	tosu,c
  3614  00054C  50FA               	movf	pclath,w,c
  3615  00054E  0012               	return		;indir
  3616  000550                     i2u94_49:
  3617  000550                     i2l46:
  3618  000550  C049  FFDA         	movff	??_INTERRUPT_InterruptManagerHigh+3,fsr2h
  3619  000554  C048  FFD9         	movff	??_INTERRUPT_InterruptManagerHigh+2,fsr2l
  3620  000558  C047  FFFB         	movff	??_INTERRUPT_InterruptManagerHigh+1,pclatu
  3621  00055C  C046  FFFA         	movff	??_INTERRUPT_InterruptManagerHigh,pclath
  3622  000560  9251               	bcf	int$flags,1,c	;clear compiler interrupt flag (level 2)
  3623  000562  0011               	retfie		f
  3624  000564                     __end_of_INTERRUPT_InterruptManagerHigh:
  3625                           	opt callstack 0
  3626                           
  3627 ;; *************** function _EUSART1_Transmit_ISR *****************
  3628 ;; Defined at:
  3629 ;;		line 197 in file "mcc_generated_files/eusart1.c"
  3630 ;; Parameters:    Size  Location     Type
  3631 ;;		None
  3632 ;; Auto vars:     Size  Location     Type
  3633 ;;		None
  3634 ;; Return value:  Size  Location     Type
  3635 ;;                  1    wreg      void 
  3636 ;; Registers used:
  3637 ;;		wreg, fsr2l, fsr2h, status,2, status,0
  3638 ;; Tracked objects:
  3639 ;;		On entry : 0/0
  3640 ;;		On exit  : 0/0
  3641 ;;		Unchanged: 0/0
  3642 ;; Data sizes:     COMRAM   BANK0   BANK1   BANK2   BANK3   BANK4   BANK5   BANK6   BANK7   BANK8   BANK9  BANK10  BANK1
      +1  BANK12  BANK13  BANK14
  3643 ;;      Params:         0       0       0       0       0       0       0       0       0       0       0       0       
      +0       0       0       0
  3644 ;;      Locals:         0       0       0       0       0       0       0       0       0       0       0       0       
      +0       0       0       0
  3645 ;;      Temps:          0       0       0       0       0       0       0       0       0       0       0       0       
      +0       0       0       0
  3646 ;;      Totals:         0       0       0       0       0       0       0       0       0       0       0       0       
      +0       0       0       0
  3647 ;;Total ram usage:        0 bytes
  3648 ;; Hardware stack levels used:    1
  3649 ;; This function calls:
  3650 ;;		Nothing
  3651 ;; This function is called by:
  3652 ;;		_EUSART1_Initialize
  3653 ;;		_INTERRUPT_InterruptManagerHigh
  3654 ;; This function uses a non-reentrant model
  3655 ;;
  3656                           
  3657                           	psect	text50
  3658  0005D8                     __ptext50:
  3659                           	opt callstack 0
  3660  0005D8                     _EUSART1_Transmit_ISR:
  3661                           	opt callstack 23
  3662  0005D8                     
  3663                           ;mcc_generated_files/eusart1.c: 201:     if(sizeof(eusart1TxBuffer) > eusart1TxBufferRem
      +                          aining)
  3664  0005D8  0E08               	movlw	8
  3665  0005DA  6045               	cpfslt	_eusart1TxBufferRemaining^0,c	;volatile
  3666  0005DC  EFF2  F002         	goto	i2u81_41
  3667  0005E0  EFF4  F002         	goto	i2u81_40
  3668  0005E4                     i2u81_41:
  3669  0005E4  EF0A  F003         	goto	i2l697
  3670  0005E8                     i2u81_40:
  3671  0005E8                     
  3672                           ;mcc_generated_files/eusart1.c: 202:     {;mcc_generated_files/eusart1.c: 203:         T
      +                          XREG1 = eusart1TxBuffer[eusart1TxTail++];
  3673  0005E8  0E11               	movlw	low _eusart1TxBuffer
  3674  0005EA  2439               	addwf	_eusart1TxTail^0,w,c	;volatile
  3675  0005EC  6ED9               	movwf	fsr2l,c
  3676  0005EE  6ADA               	clrf	fsr2h,c
  3677  0005F0  0E00               	movlw	high _eusart1TxBuffer
  3678  0005F2  22DA               	addwfc	fsr2h,f,c
  3679  0005F4  50DF               	movf	indf2,w,c
  3680  0005F6  6EAD               	movwf	173,c	;volatile
  3681  0005F8  2A39               	incf	_eusart1TxTail^0,f,c	;volatile
  3682  0005FA                     
  3683                           ;mcc_generated_files/eusart1.c: 204:         if(sizeof(eusart1TxBuffer) <= eusart1TxTail
      +                          )
  3684  0005FA  0E07               	movlw	7
  3685  0005FC  6439               	cpfsgt	_eusart1TxTail^0,c	;volatile
  3686  0005FE  EF03  F003         	goto	i2u82_41
  3687  000602  EF05  F003         	goto	i2u82_40
  3688  000606                     i2u82_41:
  3689  000606  EF07  F003         	goto	i2l2201
  3690  00060A                     i2u82_40:
  3691  00060A                     
  3692                           ;mcc_generated_files/eusart1.c: 205:         {;mcc_generated_files/eusart1.c: 206:      
      +                                 eusart1TxTail = 0;
  3693  00060A  0E00               	movlw	0
  3694  00060C  6E39               	movwf	_eusart1TxTail^0,c	;volatile
  3695  00060E                     i2l2201:
  3696                           
  3697                           ;mcc_generated_files/eusart1.c: 208:         eusart1TxBufferRemaining++;
  3698  00060E  2A45               	incf	_eusart1TxBufferRemaining^0,f,c	;volatile
  3699                           
  3700                           ;mcc_generated_files/eusart1.c: 209:     }
  3701  000610  EF0B  F003         	goto	i2l700
  3702  000614                     i2l697:
  3703                           
  3704                           ;mcc_generated_files/eusart1.c: 211:     {;mcc_generated_files/eusart1.c: 212:         P
      +                          IE1bits.TX1IE = 0;
  3705  000614  989D               	bcf	157,4,c	;volatile
  3706  000616                     i2l700:
  3707  000616  0012               	return		;funcret
  3708  000618                     __end_of_EUSART1_Transmit_ISR:
  3709                           	opt callstack 0
  3710                           
  3711 ;; *************** function _EUSART1_Receive_ISR *****************
  3712 ;; Defined at:
  3713 ;;		line 216 in file "mcc_generated_files/eusart1.c"
  3714 ;; Parameters:    Size  Location     Type
  3715 ;;		None
  3716 ;; Auto vars:     Size  Location     Type
  3717 ;;		None
  3718 ;; Return value:  Size  Location     Type
  3719 ;;                  1    wreg      void 
  3720 ;; Registers used:
  3721 ;;		wreg, fsr2l, fsr2h, status,2, status,0, pclath, tosl, cstack
  3722 ;; Tracked objects:
  3723 ;;		On entry : 0/0
  3724 ;;		On exit  : 0/0
  3725 ;;		Unchanged: 0/0
  3726 ;; Data sizes:     COMRAM   BANK0   BANK1   BANK2   BANK3   BANK4   BANK5   BANK6   BANK7   BANK8   BANK9  BANK10  BANK1
      +1  BANK12  BANK13  BANK14
  3727 ;;      Params:         0       0       0       0       0       0       0       0       0       0       0       0       
      +0       0       0       0
  3728 ;;      Locals:         0       0       0       0       0       0       0       0       0       0       0       0       
      +0       0       0       0
  3729 ;;      Temps:          0       0       0       0       0       0       0       0       0       0       0       0       
      +0       0       0       0
  3730 ;;      Totals:         0       0       0       0       0       0       0       0       0       0       0       0       
      +0       0       0       0
  3731 ;;Total ram usage:        0 bytes
  3732 ;; Hardware stack levels used:    1
  3733 ;; Hardware stack levels required when called:    2
  3734 ;; This function calls:
  3735 ;;		Absolute function
  3736 ;;		_EUSART1_DefaultErrorHandler
  3737 ;;		_EUSART1_DefaultFramingErrorHandler
  3738 ;;		_EUSART1_DefaultOverrunErrorHandler
  3739 ;;		_EUSART1_RxDataHandler
  3740 ;; This function is called by:
  3741 ;;		_EUSART1_Initialize
  3742 ;;		_INTERRUPT_InterruptManagerHigh
  3743 ;; This function uses a non-reentrant model
  3744 ;;
  3745                           
  3746                           	psect	text51
  3747  000414                     __ptext51:
  3748                           	opt callstack 0
  3749  000414                     _EUSART1_Receive_ISR:
  3750                           	opt callstack 21
  3751  000414                     
  3752                           ;mcc_generated_files/eusart1.c: 219:     eusart1RxStatusBuffer[eusart1RxHead].status = 0
      +                          ;
  3753  000414  0E01               	movlw	low _eusart1RxStatusBuffer
  3754  000416  2438               	addwf	_eusart1RxHead^0,w,c	;volatile
  3755  000418  6ED9               	movwf	fsr2l,c
  3756  00041A  6ADA               	clrf	fsr2h,c
  3757  00041C  0E00               	movlw	high _eusart1RxStatusBuffer
  3758  00041E  22DA               	addwfc	fsr2h,f,c
  3759  000420  0E00               	movlw	0
  3760  000422  6EDF               	movwf	indf2,c
  3761  000424                     
  3762                           ;mcc_generated_files/eusart1.c: 221:     if(RCSTA1bits.FERR){
  3763  000424  A4AB               	btfss	171,2,c	;volatile
  3764  000426  EF17  F002         	goto	i2u83_41
  3765  00042A  EF19  F002         	goto	i2u83_40
  3766  00042E                     i2u83_41:
  3767  00042E  EF2D  F002         	goto	i2l2211
  3768  000432                     i2u83_40:
  3769  000432                     
  3770                           ;mcc_generated_files/eusart1.c: 222:         eusart1RxStatusBuffer[eusart1RxHead].ferr =
      +                           1;
  3771  000432  0E01               	movlw	low _eusart1RxStatusBuffer
  3772  000434  2438               	addwf	_eusart1RxHead^0,w,c	;volatile
  3773  000436  6ED9               	movwf	fsr2l,c
  3774  000438  6ADA               	clrf	fsr2h,c
  3775  00043A  0E00               	movlw	high _eusart1RxStatusBuffer
  3776  00043C  22DA               	addwfc	fsr2h,f,c
  3777  00043E  82DF               	bsf	indf2,1,c
  3778  000440                     
  3779                           ;mcc_generated_files/eusart1.c: 223:         EUSART1_FramingErrorHandler();
  3780  000440  D802               	call	i2u84_48
  3781  000442  EF2D  F002         	goto	i2u84_49
  3782  000446                     i2u84_48:
  3783  000446  0005               	push	
  3784  000448  6EFA               	movwf	pclath,c
  3785  00044A  503F               	movf	_EUSART1_FramingErrorHandler^0,w,c
  3786  00044C  6EFD               	movwf	tosl,c
  3787  00044E  5040               	movf	(_EUSART1_FramingErrorHandler+1)^0,w,c
  3788  000450  6EFE               	movwf	tosh,c
  3789  000452  50F8               	movf	tblptru,w,c
  3790  000454  6EFF               	movwf	tosu,c
  3791  000456  50FA               	movf	pclath,w,c
  3792  000458  0012               	return		;indir
  3793  00045A                     i2u84_49:
  3794  00045A                     i2l2211:
  3795                           
  3796                           ;mcc_generated_files/eusart1.c: 226:     if(RCSTA1bits.OERR){
  3797  00045A  A2AB               	btfss	171,1,c	;volatile
  3798  00045C  EF32  F002         	goto	i2u85_41
  3799  000460  EF34  F002         	goto	i2u85_40
  3800  000464                     i2u85_41:
  3801  000464  EF48  F002         	goto	i2l2217
  3802  000468                     i2u85_40:
  3803  000468                     
  3804                           ;mcc_generated_files/eusart1.c: 227:         eusart1RxStatusBuffer[eusart1RxHead].oerr =
      +                           1;
  3805  000468  0E01               	movlw	low _eusart1RxStatusBuffer
  3806  00046A  2438               	addwf	_eusart1RxHead^0,w,c	;volatile
  3807  00046C  6ED9               	movwf	fsr2l,c
  3808  00046E  6ADA               	clrf	fsr2h,c
  3809  000470  0E00               	movlw	high _eusart1RxStatusBuffer
  3810  000472  22DA               	addwfc	fsr2h,f,c
  3811  000474  84DF               	bsf	indf2,2,c
  3812  000476                     
  3813                           ;mcc_generated_files/eusart1.c: 228:         EUSART1_OverrunErrorHandler();
  3814  000476  D802               	call	i2u86_48
  3815  000478  EF48  F002         	goto	i2u86_49
  3816  00047C                     i2u86_48:
  3817  00047C  0005               	push	
  3818  00047E  6EFA               	movwf	pclath,c
  3819  000480  503D               	movf	_EUSART1_OverrunErrorHandler^0,w,c
  3820  000482  6EFD               	movwf	tosl,c
  3821  000484  503E               	movf	(_EUSART1_OverrunErrorHandler+1)^0,w,c
  3822  000486  6EFE               	movwf	tosh,c
  3823  000488  50F8               	movf	tblptru,w,c
  3824  00048A  6EFF               	movwf	tosu,c
  3825  00048C  50FA               	movf	pclath,w,c
  3826  00048E  0012               	return		;indir
  3827  000490                     i2u86_49:
  3828  000490                     i2l2217:
  3829                           
  3830                           ;mcc_generated_files/eusart1.c: 231:     if(eusart1RxStatusBuffer[eusart1RxHead].status)
      +                          {
  3831  000490  0E01               	movlw	low _eusart1RxStatusBuffer
  3832  000492  2438               	addwf	_eusart1RxHead^0,w,c	;volatile
  3833  000494  6ED9               	movwf	fsr2l,c
  3834  000496  6ADA               	clrf	fsr2h,c
  3835  000498  0E00               	movlw	high _eusart1RxStatusBuffer
  3836  00049A  22DA               	addwfc	fsr2h,f,c
  3837  00049C  50DF               	movf	indf2,w,c
  3838  00049E  B4D8               	btfsc	status,2,c
  3839  0004A0  EF54  F002         	goto	i2u87_41
  3840  0004A4  EF56  F002         	goto	i2u87_40
  3841  0004A8                     i2u87_41:
  3842  0004A8  EF65  F002         	goto	i2l2221
  3843  0004AC                     i2u87_40:
  3844  0004AC                     
  3845                           ;mcc_generated_files/eusart1.c: 232:         EUSART1_ErrorHandler();
  3846  0004AC  D802               	call	i2u88_48
  3847  0004AE  EF63  F002         	goto	i2u88_49
  3848  0004B2                     i2u88_48:
  3849  0004B2  0005               	push	
  3850  0004B4  6EFA               	movwf	pclath,c
  3851  0004B6  503B               	movf	_EUSART1_ErrorHandler^0,w,c
  3852  0004B8  6EFD               	movwf	tosl,c
  3853  0004BA  503C               	movf	(_EUSART1_ErrorHandler+1)^0,w,c
  3854  0004BC  6EFE               	movwf	tosh,c
  3855  0004BE  50F8               	movf	tblptru,w,c
  3856  0004C0  6EFF               	movwf	tosu,c
  3857  0004C2  50FA               	movf	pclath,w,c
  3858  0004C4  0012               	return		;indir
  3859  0004C6                     i2u88_49:
  3860                           
  3861                           ;mcc_generated_files/eusart1.c: 233:     } else {
  3862  0004C6  EF67  F002         	goto	i2l707
  3863  0004CA                     i2l2221:
  3864                           
  3865                           ;mcc_generated_files/eusart1.c: 234:         EUSART1_RxDataHandler();
  3866  0004CA  EC21  F003         	call	_EUSART1_RxDataHandler	;wreg free
  3867  0004CE                     i2l707:
  3868  0004CE  0012               	return		;funcret
  3869  0004D0                     __end_of_EUSART1_Receive_ISR:
  3870                           	opt callstack 0
  3871                           
  3872 ;; *************** function _EUSART1_DefaultOverrunErrorHandler *****************
  3873 ;; Defined at:
  3874 ;;		line 252 in file "mcc_generated_files/eusart1.c"
  3875 ;; Parameters:    Size  Location     Type
  3876 ;;		None
  3877 ;; Auto vars:     Size  Location     Type
  3878 ;;		None
  3879 ;; Return value:  Size  Location     Type
  3880 ;;                  1    wreg      void 
  3881 ;; Registers used:
  3882 ;;		None
  3883 ;; Tracked objects:
  3884 ;;		On entry : 0/0
  3885 ;;		On exit  : 0/0
  3886 ;;		Unchanged: 0/0
  3887 ;; Data sizes:     COMRAM   BANK0   BANK1   BANK2   BANK3   BANK4   BANK5   BANK6   BANK7   BANK8   BANK9  BANK10  BANK1
      +1  BANK12  BANK13  BANK14
  3888 ;;      Params:         0       0       0       0       0       0       0       0       0       0       0       0       
      +0       0       0       0
  3889 ;;      Locals:         0       0       0       0       0       0       0       0       0       0       0       0       
      +0       0       0       0
  3890 ;;      Temps:          0       0       0       0       0       0       0       0       0       0       0       0       
      +0       0       0       0
  3891 ;;      Totals:         0       0       0       0       0       0       0       0       0       0       0       0       
      +0       0       0       0
  3892 ;;Total ram usage:        0 bytes
  3893 ;; Hardware stack levels used:    1
  3894 ;; This function calls:
  3895 ;;		Nothing
  3896 ;; This function is called by:
  3897 ;;		_EUSART1_Initialize
  3898 ;;		_EUSART1_Receive_ISR
  3899 ;; This function uses a non-reentrant model
  3900 ;;
  3901                           
  3902                           	psect	text52
  3903  000862                     __ptext52:
  3904                           	opt callstack 0
  3905  000862                     _EUSART1_DefaultOverrunErrorHandler:
  3906                           	opt callstack 22
  3907  000862                     
  3908                           ;mcc_generated_files/eusart1.c: 255:     RCSTA1bits.CREN = 0;
  3909  000862  98AB               	bcf	171,4,c	;volatile
  3910                           
  3911                           ;mcc_generated_files/eusart1.c: 256:     RCSTA1bits.CREN = 1;
  3912  000864  88AB               	bsf	171,4,c	;volatile
  3913  000866  0012               	return		;funcret
  3914  000868                     __end_of_EUSART1_DefaultOverrunErrorHandler:
  3915                           	opt callstack 0
  3916                           
  3917 ;; *************** function _EUSART1_DefaultFramingErrorHandler *****************
  3918 ;; Defined at:
  3919 ;;		line 250 in file "mcc_generated_files/eusart1.c"
  3920 ;; Parameters:    Size  Location     Type
  3921 ;;		None
  3922 ;; Auto vars:     Size  Location     Type
  3923 ;;		None
  3924 ;; Return value:  Size  Location     Type
  3925 ;;                  1    wreg      void 
  3926 ;; Registers used:
  3927 ;;		None
  3928 ;; Tracked objects:
  3929 ;;		On entry : 0/0
  3930 ;;		On exit  : 0/0
  3931 ;;		Unchanged: 0/0
  3932 ;; Data sizes:     COMRAM   BANK0   BANK1   BANK2   BANK3   BANK4   BANK5   BANK6   BANK7   BANK8   BANK9  BANK10  BANK1
      +1  BANK12  BANK13  BANK14
  3933 ;;      Params:         0       0       0       0       0       0       0       0       0       0       0       0       
      +0       0       0       0
  3934 ;;      Locals:         0       0       0       0       0       0       0       0       0       0       0       0       
      +0       0       0       0
  3935 ;;      Temps:          0       0       0       0       0       0       0       0       0       0       0       0       
      +0       0       0       0
  3936 ;;      Totals:         0       0       0       0       0       0       0       0       0       0       0       0       
      +0       0       0       0
  3937 ;;Total ram usage:        0 bytes
  3938 ;; Hardware stack levels used:    1
  3939 ;; This function calls:
  3940 ;;		Nothing
  3941 ;; This function is called by:
  3942 ;;		_EUSART1_Initialize
  3943 ;;		_EUSART1_Receive_ISR
  3944 ;; This function uses a non-reentrant model
  3945 ;;
  3946                           
  3947                           	psect	text53
  3948  00088A                     __ptext53:
  3949                           	opt callstack 0
  3950  00088A                     _EUSART1_DefaultFramingErrorHandler:
  3951                           	opt callstack 22
  3952  00088A  0012               	return		;funcret
  3953  00088C                     __end_of_EUSART1_DefaultFramingErrorHandler:
  3954                           	opt callstack 0
  3955                           
  3956 ;; *************** function _EUSART1_DefaultErrorHandler *****************
  3957 ;; Defined at:
  3958 ;;		line 260 in file "mcc_generated_files/eusart1.c"
  3959 ;; Parameters:    Size  Location     Type
  3960 ;;		None
  3961 ;; Auto vars:     Size  Location     Type
  3962 ;;		None
  3963 ;; Return value:  Size  Location     Type
  3964 ;;                  1    wreg      void 
  3965 ;; Registers used:
  3966 ;;		wreg, fsr2l, fsr2h, status,2, status,0, cstack
  3967 ;; Tracked objects:
  3968 ;;		On entry : 0/0
  3969 ;;		On exit  : 0/0
  3970 ;;		Unchanged: 0/0
  3971 ;; Data sizes:     COMRAM   BANK0   BANK1   BANK2   BANK3   BANK4   BANK5   BANK6   BANK7   BANK8   BANK9  BANK10  BANK1
      +1  BANK12  BANK13  BANK14
  3972 ;;      Params:         0       0       0       0       0       0       0       0       0       0       0       0       
      +0       0       0       0
  3973 ;;      Locals:         0       0       0       0       0       0       0       0       0       0       0       0       
      +0       0       0       0
  3974 ;;      Temps:          0       0       0       0       0       0       0       0       0       0       0       0       
      +0       0       0       0
  3975 ;;      Totals:         0       0       0       0       0       0       0       0       0       0       0       0       
      +0       0       0       0
  3976 ;;Total ram usage:        0 bytes
  3977 ;; Hardware stack levels used:    1
  3978 ;; Hardware stack levels required when called:    1
  3979 ;; This function calls:
  3980 ;;		_EUSART1_RxDataHandler
  3981 ;; This function is called by:
  3982 ;;		_EUSART1_Initialize
  3983 ;;		_EUSART1_Receive_ISR
  3984 ;; This function uses a non-reentrant model
  3985 ;;
  3986                           
  3987                           	psect	text54
  3988  000868                     __ptext54:
  3989                           	opt callstack 0
  3990  000868                     _EUSART1_DefaultErrorHandler:
  3991                           	opt callstack 21
  3992  000868                     
  3993                           ;mcc_generated_files/eusart1.c: 261:     EUSART1_RxDataHandler();
  3994  000868  EC21  F003         	call	_EUSART1_RxDataHandler	;wreg free
  3995  00086C  0012               	return		;funcret
  3996  00086E                     __end_of_EUSART1_DefaultErrorHandler:
  3997                           	opt callstack 0
  3998                           
  3999 ;; *************** function _EUSART1_RxDataHandler *****************
  4000 ;; Defined at:
  4001 ;;		line 240 in file "mcc_generated_files/eusart1.c"
  4002 ;; Parameters:    Size  Location     Type
  4003 ;;		None
  4004 ;; Auto vars:     Size  Location     Type
  4005 ;;		None
  4006 ;; Return value:  Size  Location     Type
  4007 ;;                  1    wreg      void 
  4008 ;; Registers used:
  4009 ;;		wreg, fsr2l, fsr2h, status,2, status,0
  4010 ;; Tracked objects:
  4011 ;;		On entry : 0/0
  4012 ;;		On exit  : 0/0
  4013 ;;		Unchanged: 0/0
  4014 ;; Data sizes:     COMRAM   BANK0   BANK1   BANK2   BANK3   BANK4   BANK5   BANK6   BANK7   BANK8   BANK9  BANK10  BANK1
      +1  BANK12  BANK13  BANK14
  4015 ;;      Params:         0       0       0       0       0       0       0       0       0       0       0       0       
      +0       0       0       0
  4016 ;;      Locals:         0       0       0       0       0       0       0       0       0       0       0       0       
      +0       0       0       0
  4017 ;;      Temps:          0       0       0       0       0       0       0       0       0       0       0       0       
      +0       0       0       0
  4018 ;;      Totals:         0       0       0       0       0       0       0       0       0       0       0       0       
      +0       0       0       0
  4019 ;;Total ram usage:        0 bytes
  4020 ;; Hardware stack levels used:    1
  4021 ;; This function calls:
  4022 ;;		Nothing
  4023 ;; This function is called by:
  4024 ;;		_EUSART1_Receive_ISR
  4025 ;;		_EUSART1_DefaultErrorHandler
  4026 ;; This function uses a non-reentrant model
  4027 ;;
  4028                           
  4029                           	psect	text55
  4030  000642                     __ptext55:
  4031                           	opt callstack 0
  4032  000642                     _EUSART1_RxDataHandler:
  4033                           	opt callstack 22
  4034  000642                     
  4035                           ;mcc_generated_files/eusart1.c: 242:     eusart1RxBuffer[eusart1RxHead++] = RCREG1;
  4036  000642  0E09               	movlw	low _eusart1RxBuffer
  4037  000644  2438               	addwf	_eusart1RxHead^0,w,c	;volatile
  4038  000646  6ED9               	movwf	fsr2l,c
  4039  000648  6ADA               	clrf	fsr2h,c
  4040  00064A  0E00               	movlw	high _eusart1RxBuffer
  4041  00064C  22DA               	addwfc	fsr2h,f,c
  4042  00064E  CFAE FFDF          	movff	4014,indf2	;volatile
  4043  000652  2A38               	incf	_eusart1RxHead^0,f,c	;volatile
  4044  000654                     
  4045                           ;mcc_generated_files/eusart1.c: 243:     if(sizeof(eusart1RxBuffer) <= eusart1RxHead)
  4046  000654  0E07               	movlw	7
  4047  000656  6438               	cpfsgt	_eusart1RxHead^0,c	;volatile
  4048  000658  EF30  F003         	goto	i2u78_41
  4049  00065C  EF32  F003         	goto	i2u78_40
  4050  000660                     i2u78_41:
  4051  000660  EF34  F003         	goto	i2l2083
  4052  000664                     i2u78_40:
  4053  000664                     
  4054                           ;mcc_generated_files/eusart1.c: 244:     {;mcc_generated_files/eusart1.c: 245:         e
      +                          usart1RxHead = 0;
  4055  000664  0E00               	movlw	0
  4056  000666  6E38               	movwf	_eusart1RxHead^0,c	;volatile
  4057  000668                     i2l2083:
  4058                           
  4059                           ;mcc_generated_files/eusart1.c: 247:     eusart1RxCount++;
  4060  000668  2A36               	incf	_eusart1RxCount^0,f,c	;volatile
  4061  00066A  0012               	return		;funcret
  4062  00066C                     __end_of_EUSART1_RxDataHandler:
  4063                           	opt callstack 0
  4064  0000                     
  4065                           	psect	text56
  4066  000000                     __ptext56:
  4067                           	opt callstack 0
  4068  000000                     
  4069                           	psect	rparam
  4070  0000                     
  4071                           	psect	temp
  4072  000051                     btemp:
  4073                           	opt callstack 0
  4074  000051                     	ds	1
  4075  0000                     int$flags	set	btemp
  4076  0000                     wtemp8	set	btemp+1
  4077  0000                     ttemp5	set	btemp+1
  4078  0000                     ttemp6	set	btemp+4
  4079  0000                     ttemp7	set	btemp+8
  4080                           tosu	equ	0xFFF
  4081                           tosh	equ	0xFFE
  4082                           tosl	equ	0xFFD
  4083                           stkptr	equ	0xFFC
  4084                           pclatu	equ	0xFFB
  4085                           pclath	equ	0xFFA
  4086                           pcl	equ	0xFF9
  4087                           tblptru	equ	0xFF8
  4088                           tblptrh	equ	0xFF7
  4089                           tblptrl	equ	0xFF6
  4090                           tablat	equ	0xFF5
  4091                           prodh	equ	0xFF4
  4092                           prodl	equ	0xFF3
  4093                           indf0	equ	0xFEF
  4094                           postinc0	equ	0xFEE
  4095                           postdec0	equ	0xFED
  4096                           preinc0	equ	0xFEC
  4097                           plusw0	equ	0xFEB
  4098                           fsr0h	equ	0xFEA
  4099                           fsr0l	equ	0xFE9
  4100                           wreg	equ	0xFE8
  4101                           indf1	equ	0xFE7
  4102                           postinc1	equ	0xFE6
  4103                           postdec1	equ	0xFE5
  4104                           preinc1	equ	0xFE4
  4105                           plusw1	equ	0xFE3
  4106                           fsr1h	equ	0xFE2
  4107                           fsr1l	equ	0xFE1
  4108                           bsr	equ	0xFE0
  4109                           indf2	equ	0xFDF
  4110                           postinc2	equ	0xFDE
  4111                           postdec2	equ	0xFDD
  4112                           preinc2	equ	0xFDC
  4113                           plusw2	equ	0xFDB
  4114                           fsr2h	equ	0xFDA
  4115                           fsr2l	equ	0xFD9
  4116                           status	equ	0xFD8


Data Sizes:
    Strings     0
    Constant    0
    Data        0
    BSS         58
    Persistent  11
    Stack       0

Auto Spaces:
    Space          Size  Autos    Used
    COMRAM           94     11      80
    BANK0           160      0       0
    BANK1           256      0       0
    BANK2           256      0       0
    BANK3           256      0       0
    BANK4           256      0       0
    BANK5           256      0       0
    BANK6           256      0       0
    BANK7           256      0       0
    BANK8           256      0       0
    BANK9           256      0       0
    BANK10          256      0       0
    BANK11          256      0       0
    BANK12          256      0       0
    BANK13          256      0       0
    BANK14           65      0       0

Pointer List with Targets:

    EUSART1_SetRxInterruptHandler@interruptHandler	PTR FTN()void  size(2) Largest target is 1
		 -> EUSART1_Receive_ISR(), 

    EUSART1_SetTxInterruptHandler@interruptHandler	PTR FTN()void  size(2) Largest target is 1
		 -> EUSART1_Transmit_ISR(), 

    EUSART1_SetErrorHandler@interruptHandler	PTR FTN()void  size(2) Largest target is 1
		 -> EUSART1_DefaultErrorHandler(), 

    EUSART1_SetOverrunErrorHandler@interruptHandler	PTR FTN()void  size(2) Largest target is 1
		 -> EUSART1_DefaultOverrunErrorHandler(), 

    EUSART1_SetFramingErrorHandler@interruptHandler	PTR FTN()void  size(2) Largest target is 1
		 -> EUSART1_DefaultFramingErrorHandler(), 

    EUSART1_ErrorHandler	PTR FTN()void  size(2) Largest target is 1
		 -> Absolute function(), EUSART1_DefaultErrorHandler(), 

    EUSART1_OverrunErrorHandler	PTR FTN()void  size(2) Largest target is 1
		 -> Absolute function(), EUSART1_DefaultOverrunErrorHandler(), 

    EUSART1_FramingErrorHandler	PTR FTN()void  size(2) Largest target is 1
		 -> Absolute function(), EUSART1_DefaultFramingErrorHandler(), 

    ECAN_SetMessageErrorInterruptHandler@handler	PTR FTN()void  size(2) Largest target is 1
		 -> MessageErrorDefaultInterruptHandler(), 

    MessageErrorInterruptHandler	PTR FTN()void  size(2) Largest target is 1
		 -> Absolute function(), MessageErrorDefaultInterruptHandler(), 

    ECAN_SetWakeUpInterruptHandler@handler	PTR FTN()void  size(2) Largest target is 1
		 -> WakeUpDefaultInterruptHandler(), 

    WakeUpInterruptHandler	PTR FTN()void  size(2) Largest target is 1
		 -> Absolute function(), WakeUpDefaultInterruptHandler(), 

    ECAN_SetRXWarningHandler@handler	PTR FTN()void  size(2) Largest target is 1
		 -> RXWarningDefaultHandler(), 

    RXWarningHandler	PTR FTN()void  size(2) Largest target is 1
		 -> Absolute function(), RXWarningDefaultHandler(), 

    ECAN_SetTXWarningHandler@handler	PTR FTN()void  size(2) Largest target is 1
		 -> TXWarningDefaultHandler(), 

    TXWarningHandler	PTR FTN()void  size(2) Largest target is 1
		 -> Absolute function(), TXWarningDefaultHandler(), 

    ECAN_SetRXPassiveHandler@handler	PTR FTN()void  size(2) Largest target is 1
		 -> RXPassiveDefaultHandler(), 

    RXPassiveHandler	PTR FTN()void  size(2) Largest target is 1
		 -> Absolute function(), RXPassiveDefaultHandler(), 

    ECAN_SetTXPassiveHandler@handler	PTR FTN()void  size(2) Largest target is 1
		 -> TXPassiveDefaultHandler(), 

    TXPassiveHandler	PTR FTN()void  size(2) Largest target is 1
		 -> Absolute function(), TXPassiveDefaultHandler(), 

    ECAN_SetBusOffHandler@handler	PTR FTN()void  size(2) Largest target is 1
		 -> BusOffDefaultHandler(), 

    BusOffHandler	PTR FTN()void  size(2) Largest target is 1
		 -> Absolute function(), BusOffDefaultHandler(), 

    ECAN_SetRXB1OverflowHandler@handler	PTR FTN()void  size(2) Largest target is 1
		 -> RXB1OverflowDefaultHandler(), 

    RXB1OverflowHandler	PTR FTN()void  size(2) Largest target is 1
		 -> Absolute function(), RXB1OverflowDefaultHandler(), 

    ECAN_SetRXB0OverflowHandler@handler	PTR FTN()void  size(2) Largest target is 1
		 -> RXB0OverflowDefaultHandler(), 

    RXB0OverflowHandler	PTR FTN()void  size(2) Largest target is 1
		 -> Absolute function(), RXB0OverflowDefaultHandler(), 

    ECAN_SetTXB2InterruptHandler@handler	PTR FTN()void  size(2) Largest target is 1
		 -> TXB2DefaultInterruptHandler(), 

    TXB2InterruptHandler	PTR FTN()void  size(2) Largest target is 1
		 -> Absolute function(), TXB2DefaultInterruptHandler(), 

    ECAN_SetTXB1InterruptHandler@handler	PTR FTN()void  size(2) Largest target is 1
		 -> TXB1DefaultInterruptHandler(), 

    TXB1InterruptHandler	PTR FTN()void  size(2) Largest target is 1
		 -> Absolute function(), TXB1DefaultInterruptHandler(), 

    ECAN_SetTXB0InterruptHandler@handler	PTR FTN()void  size(2) Largest target is 1
		 -> TXB0DefaultInterruptHandler(), 

    TXB0InterruptHandler	PTR FTN()void  size(2) Largest target is 1
		 -> Absolute function(), TXB0DefaultInterruptHandler(), 

    ECAN_SetRXB1InterruptHandler@handler	PTR FTN()void  size(2) Largest target is 1
		 -> RXB1DefaultInterruptHandler(), 

    RXB1InterruptHandler	PTR FTN()void  size(2) Largest target is 1
		 -> Absolute function(), RXB1DefaultInterruptHandler(), 

    ECAN_SetRXB0InterruptHandler@handler	PTR FTN()void  size(2) Largest target is 1
		 -> RXB0DefaultInterruptHandler(), 

    RXB0InterruptHandler	PTR FTN()void  size(2) Largest target is 1
		 -> Absolute function(), RXB0DefaultInterruptHandler(), 

    EUSART1_RxDefaultInterruptHandler	PTR FTN()void  size(2) Largest target is 1
		 -> Absolute function(), EUSART1_Receive_ISR(), 

    EUSART1_TxDefaultInterruptHandler	PTR FTN()void  size(2) Largest target is 1
		 -> Absolute function(), EUSART1_Transmit_ISR(), 


Critical Paths under _main in COMRAM

    _SYSTEM_Initialize->_ECAN_Initialize
    _EUSART1_Initialize->_EUSART1_SetErrorHandler
    _EUSART1_Initialize->_EUSART1_SetFramingErrorHandler
    _EUSART1_Initialize->_EUSART1_SetOverrunErrorHandler
    _EUSART1_Initialize->_EUSART1_SetRxInterruptHandler
    _EUSART1_Initialize->_EUSART1_SetTxInterruptHandler
    _ECAN_Initialize->_ECAN_SetBusOffHandler
    _ECAN_Initialize->_ECAN_SetMessageErrorInterruptHandler
    _ECAN_Initialize->_ECAN_SetRXB0InterruptHandler
    _ECAN_Initialize->_ECAN_SetRXB0OverflowHandler
    _ECAN_Initialize->_ECAN_SetRXB1InterruptHandler
    _ECAN_Initialize->_ECAN_SetRXB1OverflowHandler
    _ECAN_Initialize->_ECAN_SetRXPassiveHandler
    _ECAN_Initialize->_ECAN_SetRXWarningHandler
    _ECAN_Initialize->_ECAN_SetTXB0InterruptHandler
    _ECAN_Initialize->_ECAN_SetTXB1InterruptHandler
    _ECAN_Initialize->_ECAN_SetTXB2InterruptHandler
    _ECAN_Initialize->_ECAN_SetTXPassiveHandler
    _ECAN_Initialize->_ECAN_SetTXWarningHandler
    _ECAN_Initialize->_ECAN_SetWakeUpInterruptHandler

Critical Paths under _INTERRUPT_InterruptManagerLow in COMRAM

    None.

Critical Paths under _INTERRUPT_InterruptManagerHigh in COMRAM

    None.

Critical Paths under _main in BANK0

    None.

Critical Paths under _INTERRUPT_InterruptManagerLow in BANK0

    None.

Critical Paths under _INTERRUPT_InterruptManagerHigh in BANK0

    None.

Critical Paths under _main in BANK1

    None.

Critical Paths under _INTERRUPT_InterruptManagerLow in BANK1

    None.

Critical Paths under _INTERRUPT_InterruptManagerHigh in BANK1

    None.

Critical Paths under _main in BANK2

    None.

Critical Paths under _INTERRUPT_InterruptManagerLow in BANK2

    None.

Critical Paths under _INTERRUPT_InterruptManagerHigh in BANK2

    None.

Critical Paths under _main in BANK3

    None.

Critical Paths under _INTERRUPT_InterruptManagerLow in BANK3

    None.

Critical Paths under _INTERRUPT_InterruptManagerHigh in BANK3

    None.

Critical Paths under _main in BANK4

    None.

Critical Paths under _INTERRUPT_InterruptManagerLow in BANK4

    None.

Critical Paths under _INTERRUPT_InterruptManagerHigh in BANK4

    None.

Critical Paths under _main in BANK5

    None.

Critical Paths under _INTERRUPT_InterruptManagerLow in BANK5

    None.

Critical Paths under _INTERRUPT_InterruptManagerHigh in BANK5

    None.

Critical Paths under _main in BANK6

    None.

Critical Paths under _INTERRUPT_InterruptManagerLow in BANK6

    None.

Critical Paths under _INTERRUPT_InterruptManagerHigh in BANK6

    None.

Critical Paths under _main in BANK7

    None.

Critical Paths under _INTERRUPT_InterruptManagerLow in BANK7

    None.

Critical Paths under _INTERRUPT_InterruptManagerHigh in BANK7

    None.

Critical Paths under _main in BANK8

    None.

Critical Paths under _INTERRUPT_InterruptManagerLow in BANK8

    None.

Critical Paths under _INTERRUPT_InterruptManagerHigh in BANK8

    None.

Critical Paths under _main in BANK9

    None.

Critical Paths under _INTERRUPT_InterruptManagerLow in BANK9

    None.

Critical Paths under _INTERRUPT_InterruptManagerHigh in BANK9

    None.

Critical Paths under _main in BANK10

    None.

Critical Paths under _INTERRUPT_InterruptManagerLow in BANK10

    None.

Critical Paths under _INTERRUPT_InterruptManagerHigh in BANK10

    None.

Critical Paths under _main in BANK11

    None.

Critical Paths under _INTERRUPT_InterruptManagerLow in BANK11

    None.

Critical Paths under _INTERRUPT_InterruptManagerHigh in BANK11

    None.

Critical Paths under _main in BANK12

    None.

Critical Paths under _INTERRUPT_InterruptManagerLow in BANK12

    None.

Critical Paths under _INTERRUPT_InterruptManagerHigh in BANK12

    None.

Critical Paths under _main in BANK13

    None.

Critical Paths under _INTERRUPT_InterruptManagerLow in BANK13

    None.

Critical Paths under _INTERRUPT_InterruptManagerHigh in BANK13

    None.

Critical Paths under _main in BANK14

    None.

Critical Paths under _INTERRUPT_InterruptManagerLow in BANK14

    None.

Critical Paths under _INTERRUPT_InterruptManagerHigh in BANK14

    None.

Call Graph Tables:

 ---------------------------------------------------------------------------------
 (Depth) Function   	        Calls       Base Space   Used Autos Params    Refs
 ---------------------------------------------------------------------------------
 (0) _main                                                 0     0      0    1862
                  _SYSTEM_Initialize
 ---------------------------------------------------------------------------------
 (1) _SYSTEM_Initialize                                    0     0      0    1862
                    _ECAN_Initialize
                 _EUSART1_Initialize
               _INTERRUPT_Initialize
              _OSCILLATOR_Initialize
             _PIN_MANAGER_Initialize
 ---------------------------------------------------------------------------------
 (2) _PIN_MANAGER_Initialize                               0     0      0       0
 ---------------------------------------------------------------------------------
 (2) _OSCILLATOR_Initialize                                0     0      0       0
 ---------------------------------------------------------------------------------
 (2) _INTERRUPT_Initialize                                 0     0      0       0
 ---------------------------------------------------------------------------------
 (2) _EUSART1_Initialize                                   0     0      0     490
            _EUSART1_SetErrorHandler
     _EUSART1_SetFramingErrorHandler
     _EUSART1_SetOverrunErrorHandler
      _EUSART1_SetRxInterruptHandler
      _EUSART1_SetTxInterruptHandler
 ---------------------------------------------------------------------------------
 (3) _EUSART1_SetTxInterruptHandler                        2     0      2      98
                                              8 COMRAM     2     0      2
 ---------------------------------------------------------------------------------
 (3) _EUSART1_SetRxInterruptHandler                        2     0      2      98
                                              8 COMRAM     2     0      2
 ---------------------------------------------------------------------------------
 (3) _EUSART1_SetOverrunErrorHandler                       2     0      2      98
                                              8 COMRAM     2     0      2
 ---------------------------------------------------------------------------------
 (3) _EUSART1_SetFramingErrorHandler                       2     0      2      98
                                              8 COMRAM     2     0      2
 ---------------------------------------------------------------------------------
 (3) _EUSART1_SetErrorHandler                              2     0      2      98
                                              8 COMRAM     2     0      2
 ---------------------------------------------------------------------------------
 (2) _ECAN_Initialize                                      1     1      0    1372
                                             10 COMRAM     1     1      0
              _ECAN_SetBusOffHandler
_ECAN_SetMessageErrorInterruptHandle
       _ECAN_SetRXB0InterruptHandler
        _ECAN_SetRXB0OverflowHandler
       _ECAN_SetRXB1InterruptHandler
        _ECAN_SetRXB1OverflowHandler
           _ECAN_SetRXPassiveHandler
           _ECAN_SetRXWarningHandler
       _ECAN_SetTXB0InterruptHandler
       _ECAN_SetTXB1InterruptHandler
       _ECAN_SetTXB2InterruptHandler
           _ECAN_SetTXPassiveHandler
           _ECAN_SetTXWarningHandler
     _ECAN_SetWakeUpInterruptHandler
 ---------------------------------------------------------------------------------
 (3) _ECAN_SetWakeUpInterruptHandler                       2     0      2      98
                                              8 COMRAM     2     0      2
 ---------------------------------------------------------------------------------
 (3) _ECAN_SetTXWarningHandler                             2     0      2      98
                                              8 COMRAM     2     0      2
 ---------------------------------------------------------------------------------
 (3) _ECAN_SetTXPassiveHandler                             2     0      2      98
                                              8 COMRAM     2     0      2
 ---------------------------------------------------------------------------------
 (3) _ECAN_SetTXB2InterruptHandler                         2     0      2      98
                                              8 COMRAM     2     0      2
 ---------------------------------------------------------------------------------
 (3) _ECAN_SetTXB1InterruptHandler                         2     0      2      98
                                              8 COMRAM     2     0      2
 ---------------------------------------------------------------------------------
 (3) _ECAN_SetTXB0InterruptHandler                         2     0      2      98
                                              8 COMRAM     2     0      2
 ---------------------------------------------------------------------------------
 (3) _ECAN_SetRXWarningHandler                             2     0      2      98
                                              8 COMRAM     2     0      2
 ---------------------------------------------------------------------------------
 (3) _ECAN_SetRXPassiveHandler                             2     0      2      98
                                              8 COMRAM     2     0      2
 ---------------------------------------------------------------------------------
 (3) _ECAN_SetRXB1OverflowHandler                          2     0      2      98
                                              8 COMRAM     2     0      2
 ---------------------------------------------------------------------------------
 (3) _ECAN_SetRXB1InterruptHandler                         2     0      2      98
                                              8 COMRAM     2     0      2
 ---------------------------------------------------------------------------------
 (3) _ECAN_SetRXB0OverflowHandler                          2     0      2      98
                                              8 COMRAM     2     0      2
 ---------------------------------------------------------------------------------
 (3) _ECAN_SetRXB0InterruptHandler                         2     0      2      98
                                              8 COMRAM     2     0      2
 ---------------------------------------------------------------------------------
 (3) _ECAN_SetMessageErrorInterruptHandler                 2     0      2      98
                                              8 COMRAM     2     0      2
 ---------------------------------------------------------------------------------
 (3) _ECAN_SetBusOffHandler                                2     0      2      98
                                              8 COMRAM     2     0      2
 ---------------------------------------------------------------------------------
 Estimated maximum stack depth 3
 ---------------------------------------------------------------------------------
 (Depth) Function   	        Calls       Base Space   Used Autos Params    Refs
 ---------------------------------------------------------------------------------
 (4) _INTERRUPT_InterruptManagerLow                        4     4      0       0
                                              4 COMRAM     4     4      0
                      _ECAN_ERRI_ISR
                      _ECAN_IRXI_ISR
                     _ECAN_RXB0I_ISR
                     _ECAN_RXB1I_ISR
                     _ECAN_TXB0I_ISR
                     _ECAN_TXB1I_ISR
                     _ECAN_TXB2I_ISR
                      _ECAN_WAKI_ISR
 ---------------------------------------------------------------------------------
 (5) _ECAN_WAKI_ISR                                        0     0      0       0
                   Absolute function *
      _WakeUpDefaultInterruptHandler *
 ---------------------------------------------------------------------------------
 (6) _WakeUpDefaultInterruptHandler                        0     0      0       0
 ---------------------------------------------------------------------------------
 (5) _ECAN_TXB2I_ISR                                       0     0      0       0
                   Absolute function *
        _TXB2DefaultInterruptHandler *
 ---------------------------------------------------------------------------------
 (6) _TXB2DefaultInterruptHandler                          0     0      0       0
 ---------------------------------------------------------------------------------
 (5) _ECAN_TXB1I_ISR                                       0     0      0       0
                   Absolute function *
        _TXB1DefaultInterruptHandler *
 ---------------------------------------------------------------------------------
 (6) _TXB1DefaultInterruptHandler                          0     0      0       0
 ---------------------------------------------------------------------------------
 (5) _ECAN_TXB0I_ISR                                       0     0      0       0
                   Absolute function *
        _TXB0DefaultInterruptHandler *
 ---------------------------------------------------------------------------------
 (6) _TXB0DefaultInterruptHandler                          0     0      0       0
 ---------------------------------------------------------------------------------
 (5) _ECAN_RXB1I_ISR                                       0     0      0       0
                   Absolute function *
        _RXB1DefaultInterruptHandler *
 ---------------------------------------------------------------------------------
 (6) _RXB1DefaultInterruptHandler                          0     0      0       0
 ---------------------------------------------------------------------------------
 (5) _ECAN_RXB0I_ISR                                       0     0      0       0
                   Absolute function *
        _RXB0DefaultInterruptHandler *
 ---------------------------------------------------------------------------------
 (6) _RXB0DefaultInterruptHandler                          0     0      0       0
 ---------------------------------------------------------------------------------
 (5) _ECAN_IRXI_ISR                                        0     0      0       0
                   Absolute function *
_MessageErrorDefaultInterruptHandler *
 ---------------------------------------------------------------------------------
 (6) _MessageErrorDefaultInterruptHandler                  0     0      0       0
 ---------------------------------------------------------------------------------
 (5) _ECAN_ERRI_ISR                                        0     0      0       0
                   Absolute function *
               _BusOffDefaultHandler *
         _RXB0OverflowDefaultHandler *
         _RXB1OverflowDefaultHandler *
            _RXPassiveDefaultHandler *
            _RXWarningDefaultHandler *
            _TXPassiveDefaultHandler *
            _TXWarningDefaultHandler *
 ---------------------------------------------------------------------------------
 (6) _TXWarningDefaultHandler                              0     0      0       0
 ---------------------------------------------------------------------------------
 (6) _TXPassiveDefaultHandler                              0     0      0       0
 ---------------------------------------------------------------------------------
 (6) _RXWarningDefaultHandler                              0     0      0       0
 ---------------------------------------------------------------------------------
 (6) _RXPassiveDefaultHandler                              0     0      0       0
 ---------------------------------------------------------------------------------
 (6) _RXB1OverflowDefaultHandler                           0     0      0       0
 ---------------------------------------------------------------------------------
 (6) _RXB0OverflowDefaultHandler                           0     0      0       0
 ---------------------------------------------------------------------------------
 (6) _BusOffDefaultHandler                                 0     0      0       0
 ---------------------------------------------------------------------------------
 (9) Absolute function(Fake)                               0     0      0       0
 ---------------------------------------------------------------------------------
 Estimated maximum stack depth 9
 ---------------------------------------------------------------------------------
 (Depth) Function   	        Calls       Base Space   Used Autos Params    Refs
 ---------------------------------------------------------------------------------
 (7) _INTERRUPT_InterruptManagerHigh                       4     4      0       0
                                              0 COMRAM     4     4      0
                   Absolute function *
                _EUSART1_Receive_ISR *
               _EUSART1_Transmit_ISR *
 ---------------------------------------------------------------------------------
 (8) _EUSART1_Transmit_ISR                                 0     0      0       0
 ---------------------------------------------------------------------------------
 (8) _EUSART1_Receive_ISR                                  0     0      0       0
                   Absolute function *
        _EUSART1_DefaultErrorHandler *
 _EUSART1_DefaultFramingErrorHandler *
 _EUSART1_DefaultOverrunErrorHandler *
              _EUSART1_RxDataHandler
 ---------------------------------------------------------------------------------
 (9) _EUSART1_DefaultOverrunErrorHandler                   0     0      0       0
 ---------------------------------------------------------------------------------
 (9) _EUSART1_DefaultFramingErrorHandler                   0     0      0       0
 ---------------------------------------------------------------------------------
 (9) _EUSART1_DefaultErrorHandler                          0     0      0       0
              _EUSART1_RxDataHandler
 ---------------------------------------------------------------------------------
 (9) _EUSART1_RxDataHandler                                0     0      0       0
 ---------------------------------------------------------------------------------
 (9) Absolute function(Fake)                               0     0      0       0
 ---------------------------------------------------------------------------------
 Estimated maximum stack depth 9
 ---------------------------------------------------------------------------------

 Call Graph Graphs:

 _main (ROOT)
   _SYSTEM_Initialize
     _ECAN_Initialize
       _ECAN_SetBusOffHandler
       _ECAN_SetMessageErrorInterruptHandler
       _ECAN_SetRXB0InterruptHandler
       _ECAN_SetRXB0OverflowHandler
       _ECAN_SetRXB1InterruptHandler
       _ECAN_SetRXB1OverflowHandler
       _ECAN_SetRXPassiveHandler
       _ECAN_SetRXWarningHandler
       _ECAN_SetTXB0InterruptHandler
       _ECAN_SetTXB1InterruptHandler
       _ECAN_SetTXB2InterruptHandler
       _ECAN_SetTXPassiveHandler
       _ECAN_SetTXWarningHandler
       _ECAN_SetWakeUpInterruptHandler
     _EUSART1_Initialize
       _EUSART1_SetErrorHandler
       _EUSART1_SetFramingErrorHandler
       _EUSART1_SetOverrunErrorHandler
       _EUSART1_SetRxInterruptHandler
       _EUSART1_SetTxInterruptHandler
     _INTERRUPT_Initialize
     _OSCILLATOR_Initialize
     _PIN_MANAGER_Initialize

 _INTERRUPT_InterruptManagerLow (ROOT)
   _ECAN_ERRI_ISR
     Absolute function(Fake) *
     _BusOffDefaultHandler *
     _RXB0OverflowDefaultHandler *
     _RXB1OverflowDefaultHandler *
     _RXPassiveDefaultHandler *
     _RXWarningDefaultHandler *
     _TXPassiveDefaultHandler *
     _TXWarningDefaultHandler *
   _ECAN_IRXI_ISR
     Absolute function(Fake) *
     _MessageErrorDefaultInterruptHandler *
   _ECAN_RXB0I_ISR
     Absolute function(Fake) *
     _RXB0DefaultInterruptHandler *
   _ECAN_RXB1I_ISR
     Absolute function(Fake) *
     _RXB1DefaultInterruptHandler *
   _ECAN_TXB0I_ISR
     Absolute function(Fake) *
     _TXB0DefaultInterruptHandler *
   _ECAN_TXB1I_ISR
     Absolute function(Fake) *
     _TXB1DefaultInterruptHandler *
   _ECAN_TXB2I_ISR
     Absolute function(Fake) *
     _TXB2DefaultInterruptHandler *
   _ECAN_WAKI_ISR
     Absolute function(Fake) *
     _WakeUpDefaultInterruptHandler *

 _INTERRUPT_InterruptManagerHigh (ROOT)
   Absolute function(Fake) *
   _EUSART1_Receive_ISR *
     Absolute function(Fake) *
     _EUSART1_DefaultErrorHandler *
       _EUSART1_RxDataHandler
     _EUSART1_DefaultFramingErrorHandler *
     _EUSART1_DefaultOverrunErrorHandler *
     _EUSART1_RxDataHandler *
   _EUSART1_Transmit_ISR *

 Address spaces:
Name               Size   Autos  Total    Cost      Usage
BIGRAM             E40      0       0      35        0.0%
EEDATA             400      0       0       0        0.0%
BITBANK13          100      0       0      31        0.0%
BANK13             100      0       0      32        0.0%
BITBANK12          100      0       0      29        0.0%
BANK12             100      0       0      30        0.0%
BITBANK11          100      0       0      27        0.0%
BANK11             100      0       0      28        0.0%
BITBANK10          100      0       0      25        0.0%
BANK10             100      0       0      26        0.0%
BITBANK9           100      0       0      23        0.0%
BANK9              100      0       0      24        0.0%
BITBANK8           100      0       0      21        0.0%
BANK8              100      0       0      22        0.0%
BITBANK7           100      0       0      19        0.0%
BANK7              100      0       0      20        0.0%
BITBANK6           100      0       0      17        0.0%
BANK6              100      0       0      18        0.0%
BITBANK5           100      0       0      15        0.0%
BANK5              100      0       0      16        0.0%
BITBANK4           100      0       0      13        0.0%
BANK4              100      0       0      14        0.0%
BITBANK3           100      0       0      11        0.0%
BANK3              100      0       0      12        0.0%
BITBANK2           100      0       0       9        0.0%
BANK2              100      0       0      10        0.0%
BITBANK1           100      0       0       7        0.0%
BANK1              100      0       0       8        0.0%
BITBANK0            A0      0       0       4        0.0%
BANK0               A0      0       0       5        0.0%
BITCOMRAM           5E      0       0       0        0.0%
COMRAM              5E      B      50       1       85.1%
BITBANK14           41      0       0      33        0.0%
BANK14              41      0       0      34        0.0%
BITSFR_2             0      0       0     200        0.0%
SFR_2                0      0       0     200        0.0%
BITSFR_1             0      0       0     200        0.0%
SFR_1                0      0       0     200        0.0%
BITSFR               0      0       0     200        0.0%
SFR                  0      0       0     200        0.0%
STACK                0      0       0       2        0.0%
NULL                 0      0       0       0        0.0%
ABS                  0      0      50       6        0.0%
DATA                 0      0      50       3        0.0%
CODE                 0      0       0       0        0.0%


Microchip Technology PIC18 Macro Assembler V2.10 build 88905656 
Symbol Table                                                                                   Thu Apr 22 10:02:04 2021

                      _eusart1TxBufferRemaining 0045                   ??_ECAN_SetRXB1OverflowHandler 0050  
                                            l37 076E                                              l91 0796  
                                            l88 0784                                              bsr 000FE0  
                      __size_of_ECAN_Initialize 0192                                     __CFG_BORV$3 000000  
                                  __CFG_CP0$OFF 000000                                    __CFG_CP1$OFF 000000  
                                  __CFG_CP2$OFF 000000                                    __CFG_CP3$OFF 000000  
                                           l501 0806                                             l513 0842  
                                           l522 07F2                                             l531 081A  
                                           l507 07FC                                             l516 082E  
                                           l428 02F2                                             l525 0824  
                                           l550 0856                                             l519 0860  
                                           l528 07E8                                             l544 07DE  
                                           l483 084C                                             l723 07CA  
                                           l732 07AC                                             l726 07C0  
                                           l495 0810                                             l735 07B6  
                                           l489 0838                                             l729 07D4  
                                           l666 05D6                                             l578 0640  
                                           l588 079C                                             l589 079C  
                                  __CFG_CPB$OFF 000000           ECAN_SetWakeUpInterruptHandler@handler 004E  
                                  __CFG_CPD$OFF 000000                                             u800 02F2  
                                           u801 02EE                                             u790 017A  
                                           u791 0176                                             tosl 000FFD  
                                           wreg 000FE8                                      _TXSTA1bits 000FAC  
                       ??_ECAN_SetBusOffHandler 0050                             _RXB1OverflowHandler 0027  
                                          l2101 0594                                            l2111 0166  
                                          l2103 05A0                                            l2041 0808  
                                          l2121 0220                                            l2113 017A  
                                          l2105 05AC                                            l2051 0858  
                                          l2043 07FE                                            l2131 023E  
                                          l2123 022C                                            l2115 0210  
                                          l2107 05D4                                            l2037 0844  
                                          l2045 07F4                                            l2053 07EA  
                                          l2061 07D6                                            l2141 025C  
                                          l2133 0240                                            l2125 022E  
                                          l2117 021C                                            l2109 0162  
                                          l2063 084E                                            l2047 083A  
                                          l2039 0830                                            l2055 081C  
                                          l2151 0284                                            l2143 025E  
                                          l2135 024C                                            l2127 0230  
                                          l2119 021E                                            l2071 07B8  
                                          l2049 0826                                            l2057 07E0  
                                          l2161 02B6                                            l2153 0290  
                                          l2145 0260                                            l2137 024E  
                                          l2129 023C                                            l2073 07CC  
                                          l2065 07AE                                            l2233 0798  
                                          l2059 0812                                            l2171 02D4  
                                          l2163 02B8                                            l2155 029C  
                                          l2147 026C                                            l2139 0250  
                                          l2067 07A4                                            l2091 0580  
                                          l2173 02D6                                            l2165 02C4  
                                          l2157 02A8                                            l2149 0278  
                                          l2069 07C2                                            l2093 0584  
                                          l2085 0564                                            l1461 0618  
                                          l2181 0770                                            l2175 02DC  
                                          l2167 02C6                                            l2159 02B4  
                                          l2095 0588                                            l2087 0566  
                                          l1463 063E                                            l2183 0774  
                                          l2169 02C8                                            l2097 058C  
                                          l2089 0572                                            l1465 0786  
                                          l2185 0778                                            l2099 0590  
                                          l1459 0758                                            l2187 077C  
                  ??_RXB0OverflowDefaultHandler 004A                                            l2189 0780  
                  ?_RXB0DefaultInterruptHandler 0046                                            _LATA 000F89  
                                          _LATB 000F8A                                            _LATC 000F8B  
                                          i1l51 004E                                            i1l61 0102  
                                          i1l53 0072                                            i1l62 014A  
                                          i1l63 0126                                            i1l55 0096  
                                          i1l57 00BA                                            i2l42 051A  
                                          i1l59 00DE                                            i1l67 014A  
                                          i2l46 0550                                            _WPUB 000F5B  
           ECAN_SetTXB1InterruptHandler@handler 004E                                            _main 0798  
                                          fsr2h 000FDA                                            indf2 000FDF  
                                          fsr2l 000FD9                                            btemp 0051  
                                          start 015E               __size_of_ECAN_SetRXPassiveHandler 000A  
                                 __CFG_IESO$OFF 000000                       ?_ECAN_SetRXPassiveHandler 004E  
                                 __CFG_FOSC$HS1 000000                       ??_RXPassiveDefaultHandler 004A  
                                 __CFG_MCLRE$ON 000000                  fp__EUSART1_DefaultErrorHandler 0000  
                                  ___param_bank 000000     ECAN_SetMessageErrorInterruptHandler@handler 004E  
                __size_of_OSCILLATOR_Initialize 0012                                _TXWarningHandler 001F  
                 __end_of_OSCILLATOR_Initialize 0798                           _eusart1RxStatusBuffer 0001  
                                         ?_main 0046             __size_of_RXB0OverflowDefaultHandler 0002  
                                         i1l401 0888                                           i1l410 087C  
                                         i1l404 087E                                           i1l413 0880  
                                         i1l510 06A6                                           i1l407 0882  
                                         i1l504 06C4                                           i1l416 086E  
                                         i1l419 087A                                           i1l380 0878  
                                         i1l541 0412                                           i1l383 0876  
                                         i1l392 0870                                           i1l553 073C  
                                         i1l386 0874                                           i1l395 0886  
                                         i1l547 0688                                           i1l492 0700  
                                         i1l389 0872                                           i1l398 0884  
                                         i1l486 071E                                           i1l498 06E2  
                                         i2l700 0616                                           i2l711 066A  
                                         i2l720 086C                                           i2l714 088A  
                                         i2l707 04CE                                           i2l717 0866  
                                         i2l697 0614                                           _TRISA 000F92  
                                         _TRISB 000F93                                           _TRISC 000F94  
                                 __CFG_WRT0$OFF 000000                                   __CFG_WRT1$OFF 000000  
                                 __CFG_WRT2$OFF 000000                                   __CFG_WRT3$OFF 000000  
                          _EUSART1_Transmit_ISR 05D8                                  __CFG_EBTR0$OFF 000000  
                                __CFG_FCMEN$OFF 000000                                  __CFG_EBTR1$OFF 000000  
                                __CFG_EBTR2$OFF 000000                                  __CFG_EBTR3$OFF 000000  
              __end_of_ECAN_SetRXWarningHandler 081C                                   __CFG_WRTB$OFF 000000  
                                 __CFG_WRTC$OFF 000000                                   __CFG_WRTD$OFF 000000  
                                __CFG_EBTRB$OFF 000000                       ??_TXWarningDefaultHandler 004A  
                                         pclath 000FFA          fp__MessageErrorDefaultInterruptHandler 0000  
   __end_of_MessageErrorDefaultInterruptHandler 087C    __size_of_MessageErrorDefaultInterruptHandler 0002  
         ??_MessageErrorDefaultInterruptHandler 004A            ?_MessageErrorDefaultInterruptHandler 0046  
           _MessageErrorDefaultInterruptHandler 087A                    ?_TXB2DefaultInterruptHandler 0046  
                 ??_RXB0DefaultInterruptHandler 004A                                           ttemp5 0052  
                                         ttemp6 0055                                           ttemp7 0059  
                                         status 000FD8                                           wtemp8 0052  
                      ?_TXPassiveDefaultHandler 0046                __size_of_RXWarningDefaultHandler 0002  
         fp__EUSART1_DefaultFramingErrorHandler 0000      __end_of_EUSART1_DefaultFramingErrorHandler 088C  
   __size_of_EUSART1_DefaultFramingErrorHandler 0002            ??_EUSART1_DefaultFramingErrorHandler 0046  
           ?_EUSART1_DefaultFramingErrorHandler 0046              _EUSART1_DefaultFramingErrorHandler 088A  
                ?_INTERRUPT_InterruptManagerLow 0046                                 __initialization 073E  
                    __end_of_EUSART1_Initialize 05D8                                    __end_of_main 07A4  
             __size_of_ECAN_SetTXPassiveHandler 000A                       ?_ECAN_SetTXPassiveHandler 004E  
                fp__TXB1DefaultInterruptHandler 0000            __size_of_ECAN_SetRXB0OverflowHandler 000A  
                                        ??_main 0051                                   __activetblptr 000002  
                                __CFG_PLLCFG$ON 000000                                  __CFG_RETEN$OFF 000000  
                         ?_EUSART1_Transmit_ISR 0046                 ??_WakeUpDefaultInterruptHandler 004A  
                             ??_ECAN_Initialize 0050                                          _CANCON 000F6F  
                                        _ANCON0 000F5D                                          _ANCON1 000F5C  
                                        _CIOCON 000F70             __end_of_RXB1DefaultInterruptHandler 0878  
                   _RXB1DefaultInterruptHandler 0876                                          i1l1601 06E4  
                                        i1l1611 071C                                          i1l1603 06FE  
                                        i1l1605 0720                                          i1l1621 06C6  
                                        i1l1613 068A                                          i1l1701 00FA  
                                        i1l1607 073A                                          i1l1623 06E0  
                                        i1l1615 06A4                                          i1l1703 0110  
                                        i1l1609 0702                                          i1l1617 06A8  
                                        i1l1705 011E                                          i1l1571 031C  
                                        i1l1619 06C2                                          i1l1563 066C  
                                        i1l1707 0134                                          i1l1581 0356  
                                        i1l1573 031E                                          i1l1565 0686  
                                        i1l1709 0142                                          i1l1591 03C0  
                                        i1l1583 0370                                          i1l1575 032C  
                                        i1l1567 02F4                                          i1l1593 03CE  
                                        i1l1585 037E                                          i1l1577 0346  
                                        i1l1569 0302                                          i1l1681 0046  
                                        i1l1595 03E8                                          i1l1587 0398  
                                        i1l1579 0348                                          i1l1691 00A4  
                                        i1l1683 005C                                          i1l1597 03F6  
                                        i1l1589 03A6                                          i1l1693 00B2  
                                        i1l1685 006A                                          i1l1677 002A  
                                        i1l1599 0410                                          i1l1695 00C8  
                                        i1l1687 0080                                          i1l1679 0038  
                               __CFG_BBSIZ$BB2K 000000                                          i2l2201 060E  
                                        i1l1697 00D6                                          i1l1689 008E  
                                        i2l2211 045A                                          i2l2203 0414  
                                        i1l1699 00EC                                          i2l2221 04CA  
                                        i2l2213 0468                                          i2l2205 0424  
                                        i2l2215 0476                                          i2l2207 0432  
                                        i2l2231 0536                                          i2l2223 04E0  
                                        i2l2081 0664                                          i2l2217 0490  
                                        i2l2209 0440                                          i2l2225 04EE  
                                        i2l2083 0668                                          i2l2075 0642  
                                        i2l2219 04AC                                          i2l2227 04FC  
                                        i2l2077 0652                                          i2l2229 0528  
                                        i2l2079 0654                                          i2l2191 05D8  
                                        i2l2177 0862                                          i2l2193 05E8  
                                        i2l2179 0868                                          i2l2195 05F8  
                                        i2l2197 05FA                                  __CFG_WDTEN$OFF 000000  
                                        i2l2199 060A                                          _RCREG1 000FAE  
                                        _RCSTA1 000FAB                                          _OSCCON 000FD3  
                                        _RXB0D0 000F66                                          _RXB0D1 000F67  
                                        _RXB0D2 000F68                                          _RXB0D3 000F69  
                                        _RXB0D4 000F6A                                          _RXB1D0 000F36  
                                        _RXB0D5 000F6B                                          _RXB1D1 000F37  
                                        _RXB0D6 000F6C                                          _RXB1D2 000F38  
                                        _RXB0D7 000F6D                                          _RXB1D3 000F39  
                                        _RXB1D4 000F3A                                          _RXB1D5 000F3B  
                                        _RXB1D6 000F3C                                          _RXB1D7 000F3D  
              __end_of_ECAN_SetTXWarningHandler 07EA                                          _SPBRG1 000FAF  
                                        _TXB0D0 000F26                                          _TXB0D1 000F27  
                                        _TXB0D2 000F28                                          _TXB0D3 000F29  
                                        _TXB0D4 000F2A                                          _TXB1D0 000F16  
                                        _TXB0D5 000F2B                                          _TXB1D1 000F17  
                                        _TXB0D6 000F2C                                          _TXB1D2 000F18  
                                        _TXB0D7 000F2D                                          _TXB1D3 000F19  
                                        _TXB1D4 000F1A                                          _TXB2D0 000F06  
                                        _TXB1D5 000F1B                                          _TXB2D1 000F07  
                                        _TXB1D6 000F1C                                          _TXB2D2 000F08  
                                        _TXB1D7 000F1D                                          _TXB2D3 000F09  
                                        _TXB2D4 000F0A                                          _TXB2D5 000F0B  
                                        _TXB2D6 000F0C                                          _TXB2D7 000F0D  
                                        i1u5_20 0302                                          i1u4_28 0672  
                                        i1u5_21 02FE                                          i1u4_29 0686  
                                        i1u7_20 032C                                          i1u6_28 0308  
                                        i1u7_21 0328                                          i1u6_29 031C  
                ??_ECAN_SetTXB0InterruptHandler 0050                                          i1u9_20 0356  
                                        i1u8_28 0332                                          i1u9_21 0352  
                                        i1u8_29 0346                          __size_of_ECAN_ERRI_ISR 0120  
                                        _TXREG1 000FAD                                          _TXSTA1 000FAC  
                 ??_TXB2DefaultInterruptHandler 004A                                  __CFG_XINST$OFF 000000  
                              _RXPassiveHandler 0021                          __size_of_ECAN_IRXI_ISR 001E  
                        __size_of_ECAN_WAKI_ISR 001E                                  __CFG_STVREN$ON 000000  
            ECAN_SetRXB0OverflowHandler@handler 004E                        ?_EUSART1_SetErrorHandler 004E  
          __size_of_RXB0DefaultInterruptHandler 0002                                          clear_0 0744  
              ??_EUSART1_SetOverrunErrorHandler 0050                 ?_EUSART1_SetOverrunErrorHandler 004E  
          __end_of_ECAN_SetRXB0InterruptHandler 084E           __size_of_ECAN_SetRXB0InterruptHandler 000A  
                  _ECAN_SetRXB0InterruptHandler 0844                 ECAN_SetRXPassiveHandler@handler 004E  
                  __end_of_BusOffDefaultHandler 088A                                          tblptru 000FF8  
            __end_of_RXB0OverflowDefaultHandler 0888                      _RXB0OverflowDefaultHandler 0886  
           __end_of_TXB0DefaultInterruptHandler 0876                     _TXB0DefaultInterruptHandler 0874  
                               _eusart1RxBuffer 0009                 __end_of_TXPassiveDefaultHandler 0880  
                 __size_of_INTERRUPT_Initialize 0018             ECAN_SetRXB0InterruptHandler@handler 004E  
                               _eusart1TxBuffer 0011                ??_INTERRUPT_InterruptManagerHigh 0046  
               ?_INTERRUPT_InterruptManagerHigh 0046                               _SYSTEM_Initialize 0770  
                      _ECAN_SetRXWarningHandler 0812                                      __accesstop 0060  
                       __end_of__initialization 074A                    _MessageErrorInterruptHandler 0019  
                            ?_SYSTEM_Initialize 0046                                   ___rparam_used 000001  
                __size_of_EUSART1_RxDataHandler 002A                   __end_of_EUSART1_RxDataHandler 066C  
                                __pcstackCOMRAM 0046                  ??_ECAN_SetTXB1InterruptHandler 0050  
                           ??_SYSTEM_Initialize 0051                                _TXPassiveHandler 0023  
          __size_of_TXB2DefaultInterruptHandler 0002                                   _ECAN_ERRI_ISR 02F4  
                        ??_EUSART1_Transmit_ISR 0046                   ?_ECAN_SetRXB0InterruptHandler 004E  
                                 _ECAN_IRXI_ISR 0720                     __end_of_EUSART1_Receive_ISR 04D0  
              __end_of_ECAN_SetRXPassiveHandler 0826                                   _ECAN_WAKI_ISR 066C  
                __size_of_ECAN_SetBusOffHandler 000A            __end_of_ECAN_SetRXB1InterruptHandler 083A  
         __size_of_ECAN_SetRXB1InterruptHandler 000A                    _ECAN_SetRXB1InterruptHandler 0830  
                 __end_of_ECAN_SetBusOffHandler 0862                       __end_of_SYSTEM_Initialize 0786  
                                 _eusart1RxHead 0038                                   _eusart1TxHead 003A  
                                 _eusart1RxTail 0037           __end_of_WakeUpDefaultInterruptHandler 0870  
        __size_of_WakeUpDefaultInterruptHandler 0002                   _WakeUpDefaultInterruptHandler 086E  
                                 _eusart1TxTail 0039               _EUSART1_TxDefaultInterruptHandler 0043  
               ??_EUSART1_SetRxInterruptHandler 0050                            _RXB0InterruptHandler 0033  
                       _RXWarningDefaultHandler 0880                      fp__RXWarningDefaultHandler 0000  
                                    __pnvCOMRAM 003B                 ECAN_SetTXWarningHandler@handler 004E  
               __end_of_EUSART1_SetErrorHandler 07D6                        _ECAN_SetTXWarningHandler 07E0  
                                       _ECANCON 000F72                                         _CANSTAT 000F6E  
                                ?_ECAN_ERRI_ISR 0046                ??_ECAN_SetWakeUpInterruptHandler 0050  
               ?_ECAN_SetWakeUpInterruptHandler 004E                                         _BRGCON1 000E43  
                                       _BRGCON2 000E44                                         _BRGCON3 000E45  
                ??_ECAN_SetTXB2InterruptHandler 0050          __end_of_EUSART1_SetFramingErrorHandler 07CC  
       __size_of_EUSART1_SetFramingErrorHandler 000A                  _EUSART1_SetFramingErrorHandler 07C2  
                                ?_ECAN_IRXI_ISR 0046                                __CFG_CANMX$PORTB 000000  
                  ?_EUSART1_DefaultErrorHandler 0046                                         _REFOCON 000F9A  
                                       _OSCCON2 000FD2                                         i1u11_20 037E  
                                       i1u10_28 035C                                         i1u11_21 037A  
                                       i1u10_29 0370                                  ?_ECAN_WAKI_ISR 0046  
                                       i1u13_20 03A6                                         i1u12_28 0384  
                                       i1u20_28 0726                                         i1u13_21 03A2  
                                       i1u12_29 0398                                         i1u20_29 073A  
                                       i1u21_28 0708                                         i1u21_29 071C  
                                       i1u15_20 03CE                                         i1u14_28 03AC  
                                       i1u22_28 0690                                         i1u15_21 03CA  
                                       i1u14_29 03C0                                         i1u22_29 06A4  
                                       i1u23_28 06AE                                         i1u40_20 0046  
                                       i1u23_29 06C2                                         i1u40_21 0042  
                                       i1u17_20 03F6                                         i1u16_28 03D4  
                                       i1u24_28 06CC                                         i1u41_20 005C  
                                       i1u17_21 03F2                                         i1u16_29 03E8  
                                       i1u24_29 06E0                                         i1u41_21 0058  
                                       i1u50_20 00FA                                         i1u42_20 006A  
                                       i1u50_21 00F6                                         i1u42_21 0066  
                                       i1u18_28 03FC                                         i1u51_20 0110  
                                       i1u43_20 0080                                         i1u18_29 0410  
                                       i1u51_21 010C                                         i1u43_21 007C  
                                       i1u19_28 06EA                                         i1u52_20 011E  
                                       i1u44_20 008E                                         i1u19_29 06FE  
                                       i1u52_21 011A                                         i1u44_21 008A  
                                       i1u53_20 0134                                         i1u45_20 00A4  
                                       i1u53_21 0130                                         i1u45_21 00A0  
                                       i1u54_20 0142                                         i1u46_20 00B2  
                                       i1u54_21 013E                                         i1u46_21 00AE  
                                       i1u47_20 00C8                                         i1u39_20 0038  
                                       i1u47_21 00C4                                         i1u39_21 0034  
                                       i1u48_20 00D6                                         i1u48_21 00D2  
                                       i1u49_20 00EC                                         i1u49_21 00E8  
                                       _RXB0DLC 000F65                                         _RXB1DLC 000F35  
                                       _OSCTUNE 000F9B                                         i2u81_40 05E8  
                                       i2u81_41 05E4                                         i2u82_40 060A  
                                       i2u90_40 04FC                                         i2u82_41 0606  
                                       i2u90_41 04F8                                         i2u83_40 0432  
                                       i2u83_41 042E                                         _SPBRGH1 000F7D  
                                       i2u92_40 0528                                         i2u91_48 0502  
                                       i2u92_41 0524                                         i2u91_49 0516  
                                       i2u85_40 0468                                         i2u84_48 0446  
                                       i2u93_40 0536                                         i2u85_41 0464  
                                       i2u84_49 045A                                         i2u93_41 0532  
                                       i2u78_40 0664                                         i2u78_41 0660  
                                       i2u87_40 04AC                                         i2u86_48 047C  
                                       i2u94_48 053C                                         i2u87_41 04A8  
                                       i2u86_49 0490                                         i2u94_49 0550  
                                       i2u88_48 04B2                                         i2u89_40 04EE  
                                       i2u88_49 04C6                                         i2u89_41 04EA  
                                       _TXB0DLC 000F25                                         _TXB1DLC 000F15  
                                       _TXB2DLC 000F05                   ?_ECAN_SetRXB1InterruptHandler 004E  
                  ??_RXB1OverflowDefaultHandler 004A                __end_of_ECAN_SetTXPassiveHandler 07F4  
           ECAN_SetTXB2InterruptHandler@handler 004E                                 __CFG_PWRTEN$OFF 000000  
                                       __Hparam 0000                                         __Lparam 0000  
                          _RXB1InterruptHandler 0031                            _BusOffDefaultHandler 0888  
                       __size_of_ECAN_RXB0I_ISR 001E                                 _ECAN_Initialize 0162  
                       __size_of_ECAN_RXB1I_ISR 001E                                         __pcinit 073E  
              __size_of_TXPassiveDefaultHandler 0002                                         __ramtop 0F00  
                       __size_of_ECAN_TXB0I_ISR 001E                         __size_of_ECAN_TXB1I_ISR 001E  
                       __size_of_ECAN_TXB2I_ISR 001E                                         __ptext0 0798  
                                       __ptext1 0770                                         __ptext2 0618  
                                       __ptext3 0786                                         __ptext4 0758  
                                       __ptext5 0564                                         __ptext6 07A4  
                                       __ptext7 07AE                                         __ptext8 07B8  
                                       __ptext9 07C2                  fp__RXB1DefaultInterruptHandler 0000  
           __size_of_RXB1OverflowDefaultHandler 0002                           _OSCILLATOR_Initialize 0786  
                            _EUSART1_Initialize 0564                        ??_PIN_MANAGER_Initialize 004E  
                             __CFG_MSSPMSK$MSK7 000000                   ??_EUSART1_DefaultErrorHandler 0046  
                    __size_of_SYSTEM_Initialize 0016                       ??_RXWarningDefaultHandler 004A  
                                __pintcode_body 04D0                            end_of_initialization 074A  
                        _WakeUpInterruptHandler 001B                             ?_EUSART1_Initialize 0046  
                  ?_TXB1DefaultInterruptHandler 0046             __end_of_ECAN_SetRXB0OverflowHandler 0844  
                   _ECAN_SetRXB0OverflowHandler 083A                        _ECAN_SetRXPassiveHandler 081C  
                      ?_RXPassiveDefaultHandler 0046                                   __Lmediumconst 0000  
                   _EUSART1_OverrunErrorHandler 003D                                         int_func 04D0  
              fp__WakeUpDefaultInterruptHandler 0000                  ?_WakeUpDefaultInterruptHandler 0046  
         __end_of_EUSART1_SetRxInterruptHandler 07B8          __size_of_EUSART1_SetRxInterruptHandler 000A  
                 _EUSART1_SetRxInterruptHandler 07AE                           ?_BusOffDefaultHandler 0046  
                 ??_ECAN_SetRXB0OverflowHandler 0050                                         postinc0 000FEE  
                               ??_ECAN_ERRI_ISR 004A                            ??_EUSART1_Initialize 0050  
                fp__TXB0DefaultInterruptHandler 0000                                 ??_ECAN_IRXI_ISR 004A  
                  ECAN_SetBusOffHandler@handler 004E                                 ??_ECAN_WAKI_ISR 004A  
                    ??_ECAN_SetRXWarningHandler 0050                             _RXB0OverflowHandler 0029  
                      ?_TXWarningDefaultHandler 0046                         fp__EUSART1_Transmit_ISR 0000  
                   ?_RXB0OverflowDefaultHandler 0046                __size_of_EUSART1_SetErrorHandler 000A  
           __end_of_RXB0DefaultInterruptHandler 087A                     _RXB0DefaultInterruptHandler 0878  
                 ??_TXB1DefaultInterruptHandler 004A                         __end_of_ECAN_Initialize 02F4  
                  ?_ECAN_SetRXB1OverflowHandler 004E            __size_of_EUSART1_DefaultErrorHandler 0006  
                      _ECAN_SetTXPassiveHandler 07EA                    __end_of_INTERRUPT_Initialize 0770  
                        ?_OSCILLATOR_Initialize 0046            __end_of_ECAN_SetTXB0InterruptHandler 0812  
         __size_of_ECAN_SetTXB0InterruptHandler 000A                    _ECAN_SetTXB0InterruptHandler 0808  
                           start_initialization 073E                 ECAN_SetTXPassiveHandler@handler 004E  
               __size_of_PIN_MANAGER_Initialize 002A                 __end_of_RXPassiveDefaultHandler 0884  
            __end_of_RXB1OverflowDefaultHandler 0886                      _RXB1OverflowDefaultHandler 0884  
 EUSART1_SetRxInterruptHandler@interruptHandler 004E   EUSART1_SetTxInterruptHandler@interruptHandler 004E  
                    ??_ECAN_SetTXWarningHandler 0050             __end_of_TXB2DefaultInterruptHandler 0872  
                   _TXB2DefaultInterruptHandler 0870                          fp__EUSART1_Receive_ISR 0000  
           ECAN_SetRXB1InterruptHandler@handler 004E                          ??_BusOffDefaultHandler 004A  
                                _ECAN_RXB0I_ISR 0702                                  _ECAN_RXB1I_ISR 06E4  
                         _EUSART1_RxDataHandler 0642                  ?_EUSART1_SetRxInterruptHandler 004E  
                       _TXPassiveDefaultHandler 087E                      fp__TXPassiveDefaultHandler 0000  
                                _ECAN_TXB0I_ISR 06C6            __size_of_TXB1DefaultInterruptHandler 0002  
                                _ECAN_TXB1I_ISR 06A8                                  _ECAN_TXB2I_ISR 068A  
               __end_of_TXWarningDefaultHandler 087E                                  _eusart1RxCount 0036  
                 ?_ECAN_SetTXB0InterruptHandler 004E                                     __pbssCOMRAM 0001  
             _EUSART1_RxDefaultInterruptHandler 0041                   __size_of_EUSART1_Transmit_ISR 0040  
          __end_of_ECAN_SetTXB1InterruptHandler 0808           __size_of_ECAN_SetTXB1InterruptHandler 000A  
                  _ECAN_SetTXB1InterruptHandler 07FE    __end_of_ECAN_SetMessageErrorInterruptHandler 0858  
 __size_of_ECAN_SetMessageErrorInterruptHandler 000A          ??_ECAN_SetMessageErrorInterruptHandler 0050  
         ?_ECAN_SetMessageErrorInterruptHandler 004E            _ECAN_SetMessageErrorInterruptHandler 084E  
        __end_of_ECAN_SetWakeUpInterruptHandler 07E0         __size_of_ECAN_SetWakeUpInterruptHandler 000A  
                _ECAN_SetWakeUpInterruptHandler 07D6                 ??_EUSART1_SetTxInterruptHandler 0050  
                         _ECAN_SetBusOffHandler 0858                ??_EUSART1_SetFramingErrorHandler 0050  
               ?_EUSART1_SetFramingErrorHandler 004E                    __size_of_EUSART1_Receive_ISR 00BC  
                          _TXB0InterruptHandler 002F                   fp__RXB0OverflowDefaultHandler 0000  
                              ?_ECAN_Initialize 0046                          _PIN_MANAGER_Initialize 0618  
                        __end_of_ECAN_RXB0I_ISR 0720                          __end_of_ECAN_RXB1I_ISR 0702  
                                     __pintcode 0008                          __end_of_ECAN_TXB0I_ISR 06E4  
                        __end_of_ECAN_TXB1I_ISR 06C6                          __end_of_ECAN_TXB2I_ISR 06A8  
                                   __pintcodelo 0018                                        _BAUDCON1 000FA7  
                                   _COMSTATbits 000F71           fp__EUSART1_DefaultOverrunErrorHandler 0000  
    __end_of_EUSART1_DefaultOverrunErrorHandler 0868     __size_of_EUSART1_DefaultOverrunErrorHandler 0006  
          ??_EUSART1_DefaultOverrunErrorHandler 0046             ?_EUSART1_DefaultOverrunErrorHandler 0046  
            _EUSART1_DefaultOverrunErrorHandler 0862            __size_of_ECAN_SetRXB1OverflowHandler 000A  
                    ??_ECAN_SetRXPassiveHandler 0050                            _EUSART1_ErrorHandler 003B  
                       _EUSART1_SetErrorHandler 07CC             ECAN_SetTXB0InterruptHandler@handler 004E  
                 ?_ECAN_SetTXB1InterruptHandler 004E                            _INTERRUPT_Initialize 0758  
                  ?_RXB1DefaultInterruptHandler 0046         EUSART1_SetErrorHandler@interruptHandler 004E  
          __end_of_ECAN_SetTXB2InterruptHandler 07FE           __size_of_ECAN_SetTXB2InterruptHandler 000A  
                  _ECAN_SetTXB2InterruptHandler 07F4                                        _IPR1bits 000F9F  
                                      _PIE1bits 000F9D                                        _IPR5bits 000F78  
                                      _PIE5bits 000F76                                        _PIR1bits 000F9E  
                               ?_ECAN_RXB0I_ISR 0046                                 ?_ECAN_RXB1I_ISR 0046  
                                      _PIR5bits 000F77                       ??_TXPassiveDefaultHandler 004A  
                                      _RXB0EIDH 000F63                            _TXB1InterruptHandler 002D  
                                      _RXB0EIDL 000F64                                        _RXB1EIDH 000F33  
                        ?_EUSART1_RxDataHandler 0046                                        _RXB1EIDL 000F34  
                                      _RCONbits 000FD0                                        _RXB0SIDH 000F61  
                                      _RXB0SIDL 000F62                                        _RXB1SIDH 000F31  
                                      _RXF0EIDH 000EE2                                        _RXB1SIDL 000F32  
                                      _RXF0EIDL 000EE3                                        _RXF1EIDH 000EE6  
                                      _RXF1EIDL 000EE7                                        _RXF2EIDH 000EEA  
                                      _RXF2EIDL 000EEB                                        _RXF3EIDH 000EEE  
                                      _RXF3EIDL 000EEF                                        _RXF4EIDH 000EF2  
                                      _RXF4EIDL 000EF3                                        _RXF5EIDH 000EF6  
                                      _RXF5EIDL 000EF7                                        _RXF0SIDH 000EE0  
                                      _RXF0SIDL 000EE1                                        _TXB0EIDH 000F23  
                                      _RXF1SIDH 000EE4                                        _TXB0EIDL 000F24  
                                      _RXF1SIDL 000EE5                                        _TXB1EIDH 000F13  
                                      _RXF2SIDH 000EE8                                        _TXB1EIDL 000F14  
                                      _RXF2SIDL 000EE9                                        _TXB2EIDH 000F03  
                                      _RXF3SIDH 000EEC                                        _TXB2EIDL 000F04  
                                      _RXF3SIDL 000EED                                        _RXF4SIDH 000EF0  
                                      _RXF4SIDL 000EF1                                        _RXF5SIDH 000EF4  
                                      _RXF5SIDL 000EF5                                 ?_ECAN_TXB0I_ISR 0046  
                                      _RXM0EIDH 000EFA                                        _RXM0EIDL 000EFB  
                                      _TXB0SIDH 000F21                                        _RXM1EIDH 000EFE  
                               ?_ECAN_TXB1I_ISR 0046                                        _TXB0SIDL 000F22  
                                      _RXM1EIDL 000EFF                                   _BusOffHandler 0025  
                                      _TXB1SIDH 000F11                                        _TXB1SIDL 000F12  
                                      _TXB2SIDH 000F01                                 ?_ECAN_TXB2I_ISR 0046  
                                      _TXB2SIDL 000F02                                        _RXM0SIDH 000EF8  
                                      _RXM0SIDL 000EF9                                        _RXM1SIDH 000EFC  
                                      _RXM1SIDL 000EFD                __size_of_RXPassiveDefaultHandler 0002  
                fp__RXB0DefaultInterruptHandler 0000                                __CFG_SOSCSEL$DIG 000000  
                                   _INTCON2bits 000FF1                          ?_ECAN_SetBusOffHandler 004E  
                         ?_INTERRUPT_Initialize 0046                    ?_TXB0DefaultInterruptHandler 0046  
                    ??_ECAN_SetTXPassiveHandler 0050                   ??_RXB1DefaultInterruptHandler 004A  
              __size_of_TXWarningDefaultHandler 0002                   ?_ECAN_SetTXB2InterruptHandler 004E  
         __end_of_EUSART1_SetTxInterruptHandler 07AE          __size_of_EUSART1_SetTxInterruptHandler 000A  
                 _EUSART1_SetTxInterruptHandler 07A4                                        __Hrparam 0000  
                                      __Lrparam 0000                              __CFG_BOREN$SBORDIS 000000  
                       fp__BusOffDefaultHandler 0000                         ??_OSCILLATOR_Initialize 004E  
                   __size_of_EUSART1_Initialize 0074                           __end_of_ECAN_ERRI_ISR 0414  
                          _TXB2InterruptHandler 002B                  fp__TXB2DefaultInterruptHandler 0000  
                     ??_EUSART1_SetErrorHandler 0050             __end_of_EUSART1_DefaultErrorHandler 086E  
                   _EUSART1_DefaultErrorHandler 0868                           __end_of_ECAN_IRXI_ISR 073E  
                      ?_RXWarningDefaultHandler 0046                 ??_INTERRUPT_InterruptManagerLow 004A  
                         __end_of_ECAN_WAKI_ISR 068A                                        __ptext10 07CC  
                                      __ptext11 0162                                        __ptext20 0826  
                                      __ptext12 07D6                                        __ptext21 0830  
                                      __ptext13 07E0                                        __ptext30 0870  
                                      __ptext22 083A                                        __ptext14 07EA  
                                      __ptext31 06A8                                        __ptext23 0844  
                                      __ptext15 07F4                                        __ptext40 087A  
                                      __ptext32 0872                                        __ptext24 084E  
                                      __ptext16 07FE                                        __ptext41 02F4  
                                      __ptext33 06C6                                        __ptext25 0858  
                                      __ptext17 0808                                        __ptext50 05D8  
                                      __ptext42 087C                                        __ptext34 0874  
                                      __ptext18 0812                                        __ptext51 0414  
                                      __ptext43 087E                                        __ptext35 06E4  
                                      __ptext27 066C                                        __ptext19 081C  
                                      __ptext52 0862                                        __ptext44 0880  
                                      __ptext36 0876                                        __ptext28 086E  
                                      __ptext53 088A                                        __ptext45 0882  
                                      __ptext37 0702                                        __ptext29 068A  
                                      __ptext54 0868                                        __ptext46 0884  
                                      __ptext38 0878                                        __ptext55 0642  
                                      __ptext47 0886                                        __ptext39 0720  
                                      __ptext56 0000                                        __ptext48 0888  
                   ?_RXB1OverflowDefaultHandler 0046                   ??_TXB0DefaultInterruptHandler 004A  
                ??_ECAN_SetRXB0InterruptHandler 0050                                   __size_of_main 000C  
             __size_of_ECAN_SetRXWarningHandler 000A                       ?_ECAN_SetRXWarningHandler 004E  
EUSART1_SetOverrunErrorHandler@interruptHandler 004E                                        int$flags 0051  
            ECAN_SetRXB1OverflowHandler@handler 004E            __size_of_RXB1DefaultInterruptHandler 0002  
                   _EUSART1_FramingErrorHandler 003F                             __CFG_INTOSCSEL$HIGH 000000  
                           _EUSART1_Receive_ISR 0414                                     _RXB0CONbits 000F60  
                                   _RXB1CONbits 000F30                                      _INTCONbits 000FF2  
                        ??_INTERRUPT_Initialize 004E             __end_of_TXB1DefaultInterruptHandler 0874  
                   _TXB1DefaultInterruptHandler 0872                                        intlevel1 0000  
                                      intlevel2 0000                            ?_EUSART1_Receive_ISR 0046  
                       ?_PIN_MANAGER_Initialize 0046          __end_of_EUSART1_SetOverrunErrorHandler 07C2  
       __size_of_EUSART1_SetOverrunErrorHandler 000A                  _EUSART1_SetOverrunErrorHandler 07B8  
                                   _TXB0CONbits 000F20                                      _RCSTA1bits 000FAB  
                                   _TXB1CONbits 000F10                    __end_of_EUSART1_Transmit_ISR 0618  
                                   _TXB2CONbits 000F00                  ??_ECAN_SetRXB1InterruptHandler 0050  
                 __size_of_BusOffDefaultHandler 0002                         _RXPassiveDefaultHandler 0882  
                    fp__RXPassiveDefaultHandler 0000                              __CFG_WDTPS$1048576 000000  
EUSART1_SetFramingErrorHandler@interruptHandler 004E               __size_of_ECAN_SetTXWarningHandler 000A  
                ?_EUSART1_SetTxInterruptHandler 004E            __size_of_TXB0DefaultInterruptHandler 0002  
                     ?_ECAN_SetTXWarningHandler 004E                 __end_of_RXWarningDefaultHandler 0882  
                            _eusart1RxLastError 0035          __end_of_INTERRUPT_InterruptManagerHigh 0564  
       __size_of_INTERRUPT_InterruptManagerHigh 055C                  _INTERRUPT_InterruptManagerHigh 0008  
         __end_of_INTERRUPT_InterruptManagerLow 015E          __size_of_INTERRUPT_InterruptManagerLow 0146  
                 _INTERRUPT_InterruptManagerLow 0018                           ??_EUSART1_Receive_ISR 0046  
                __end_of_PIN_MANAGER_Initialize 0642                 ECAN_SetRXWarningHandler@handler 004E  
                              ??_ECAN_RXB0I_ISR 004A                    ?_ECAN_SetRXB0OverflowHandler 004E  
                              ??_ECAN_RXB1I_ISR 004A                             __CFG_BORPWR$ZPBORMV 000000  
                 fp__RXB1OverflowDefaultHandler 0000                         _TXWarningDefaultHandler 087C  
           __end_of_ECAN_SetRXB1OverflowHandler 0830                     _ECAN_SetRXB1OverflowHandler 0826  
                    fp__TXWarningDefaultHandler 0000                         ??_EUSART1_RxDataHandler 0046  
                              ??_ECAN_TXB0I_ISR 004A                                ??_ECAN_TXB1I_ISR 004A  
                              ??_ECAN_TXB2I_ISR 004A                                _RXWarningHandler 001D  
